libbpf: loading object from build/wm.bpf.o
libbpf: elf: section(2) .text, size 5968, link 0, flags 6, type=1
libbpf: sec '.text': found program 'step_cb' at insn offset 0 (0 bytes), code size 746 insns (5968 bytes)
libbpf: elf: section(3) .rel.text, size 1232, link 28, flags 40, type=9
libbpf: elf: section(4) syscall, size 6968, link 0, flags 6, type=1
libbpf: sec 'syscall': found program 'wm_nand' at insn offset 0 (0 bytes), code size 106 insns (848 bytes)
libbpf: sec 'syscall': found program 'wm_fa' at insn offset 106 (848 bytes), code size 735 insns (5880 bytes)
libbpf: sec 'syscall': found program 'wm_adder32' at insn offset 841 (6728 bytes), code size 30 insns (240 bytes)
libbpf: elf: section(5) .relsyscall, size 1456, link 28, flags 40, type=9
libbpf: elf: section(6) license, size 4, link 0, flags 3, type=1
libbpf: license of build/wm.bpf.o is GPL
libbpf: elf: section(7) .maps, size 320, link 0, flags 3, type=1
libbpf: elf: section(18) .BTF, size 2697, link 0, flags 0, type=1
libbpf: elf: section(20) .BTF.ext, size 6632, link 0, flags 0, type=1
libbpf: elf: section(28) .symtab, size 2232, link 1, flags 0, type=2
libbpf: looking for externs among 93 symbols...
libbpf: collected 0 externs total
libbpf: map 'G0': at sec_idx 7, offset 0.
libbpf: map 'G0': found type = 1.
libbpf: map 'G0': found key [8], sz = 4.
libbpf: map 'G0': found value [11], sz = 8.
libbpf: map 'G0': found max_entries = 2.
libbpf: map 'TAPE': at sec_idx 7, offset 32.
libbpf: map 'TAPE': found type = 2.
libbpf: map 'TAPE': found key [8], sz = 4.
libbpf: map 'TAPE': found value [11], sz = 8.
libbpf: map 'TAPE': found max_entries = 256.
libbpf: map 'G1': at sec_idx 7, offset 64.
libbpf: map 'G1': found type = 1.
libbpf: map 'G1': found key [8], sz = 4.
libbpf: map 'G1': found value [11], sz = 8.
libbpf: map 'G1': found max_entries = 2.
libbpf: map 'G2': at sec_idx 7, offset 96.
libbpf: map 'G2': found type = 1.
libbpf: map 'G2': found key [8], sz = 4.
libbpf: map 'G2': found value [11], sz = 8.
libbpf: map 'G2': found max_entries = 2.
libbpf: map 'G3': at sec_idx 7, offset 128.
libbpf: map 'G3': found type = 1.
libbpf: map 'G3': found key [8], sz = 4.
libbpf: map 'G3': found value [11], sz = 8.
libbpf: map 'G3': found max_entries = 2.
libbpf: map 'G4': at sec_idx 7, offset 160.
libbpf: map 'G4': found type = 1.
libbpf: map 'G4': found key [8], sz = 4.
libbpf: map 'G4': found value [11], sz = 8.
libbpf: map 'G4': found max_entries = 2.
libbpf: map 'G5': at sec_idx 7, offset 192.
libbpf: map 'G5': found type = 1.
libbpf: map 'G5': found key [8], sz = 4.
libbpf: map 'G5': found value [11], sz = 8.
libbpf: map 'G5': found max_entries = 2.
libbpf: map 'G6': at sec_idx 7, offset 224.
libbpf: map 'G6': found type = 1.
libbpf: map 'G6': found key [8], sz = 4.
libbpf: map 'G6': found value [11], sz = 8.
libbpf: map 'G6': found max_entries = 2.
libbpf: map 'G7': at sec_idx 7, offset 256.
libbpf: map 'G7': found type = 1.
libbpf: map 'G7': found key [8], sz = 4.
libbpf: map 'G7': found value [11], sz = 8.
libbpf: map 'G7': found max_entries = 2.
libbpf: map 'G8': at sec_idx 7, offset 288.
libbpf: map 'G8': found type = 1.
libbpf: map 'G8': found key [8], sz = 4.
libbpf: map 'G8': found value [11], sz = 8.
libbpf: map 'G8': found max_entries = 2.
libbpf: sec '.rel.text': collecting relocation for section(2) '.text'
libbpf: sec '.rel.text': relo #0: insn #10 against 'TAPE'
libbpf: prog 'step_cb': found map 1 (TAPE, sec 7, off 32) for insn #10
libbpf: sec '.rel.text': relo #1: insn #25 against 'TAPE'
libbpf: prog 'step_cb': found map 1 (TAPE, sec 7, off 32) for insn #25
libbpf: sec '.rel.text': relo #2: insn #37 against 'TAPE'
libbpf: prog 'step_cb': found map 1 (TAPE, sec 7, off 32) for insn #37
libbpf: sec '.rel.text': relo #3: insn #52 against 'G0'
libbpf: prog 'step_cb': found map 0 (G0, sec 7, off 0) for insn #52
libbpf: sec '.rel.text': relo #4: insn #58 against 'G0'
libbpf: prog 'step_cb': found map 0 (G0, sec 7, off 0) for insn #58
libbpf: sec '.rel.text': relo #5: insn #65 against 'G0'
libbpf: prog 'step_cb': found map 0 (G0, sec 7, off 0) for insn #65
libbpf: sec '.rel.text': relo #6: insn #70 against 'G0'
libbpf: prog 'step_cb': found map 0 (G0, sec 7, off 0) for insn #70
libbpf: sec '.rel.text': relo #7: insn #86 against 'G0'
libbpf: prog 'step_cb': found map 0 (G0, sec 7, off 0) for insn #86
libbpf: sec '.rel.text': relo #8: insn #92 against 'G0'
libbpf: prog 'step_cb': found map 0 (G0, sec 7, off 0) for insn #92
libbpf: sec '.rel.text': relo #9: insn #104 against 'TAPE'
libbpf: prog 'step_cb': found map 1 (TAPE, sec 7, off 32) for insn #104
libbpf: sec '.rel.text': relo #10: insn #116 against 'TAPE'
libbpf: prog 'step_cb': found map 1 (TAPE, sec 7, off 32) for insn #116
libbpf: sec '.rel.text': relo #11: insn #126 against 'G1'
libbpf: prog 'step_cb': found map 2 (G1, sec 7, off 64) for insn #126
libbpf: sec '.rel.text': relo #12: insn #132 against 'G1'
libbpf: prog 'step_cb': found map 2 (G1, sec 7, off 64) for insn #132
libbpf: sec '.rel.text': relo #13: insn #139 against 'G1'
libbpf: prog 'step_cb': found map 2 (G1, sec 7, off 64) for insn #139
libbpf: sec '.rel.text': relo #14: insn #144 against 'G1'
libbpf: prog 'step_cb': found map 2 (G1, sec 7, off 64) for insn #144
libbpf: sec '.rel.text': relo #15: insn #160 against 'G1'
libbpf: prog 'step_cb': found map 2 (G1, sec 7, off 64) for insn #160
libbpf: sec '.rel.text': relo #16: insn #166 against 'G1'
libbpf: prog 'step_cb': found map 2 (G1, sec 7, off 64) for insn #166
libbpf: sec '.rel.text': relo #17: insn #178 against 'TAPE'
libbpf: prog 'step_cb': found map 1 (TAPE, sec 7, off 32) for insn #178
libbpf: sec '.rel.text': relo #18: insn #190 against 'TAPE'
libbpf: prog 'step_cb': found map 1 (TAPE, sec 7, off 32) for insn #190
libbpf: sec '.rel.text': relo #19: insn #200 against 'G2'
libbpf: prog 'step_cb': found map 3 (G2, sec 7, off 96) for insn #200
libbpf: sec '.rel.text': relo #20: insn #206 against 'G2'
libbpf: prog 'step_cb': found map 3 (G2, sec 7, off 96) for insn #206
libbpf: sec '.rel.text': relo #21: insn #214 against 'G2'
libbpf: prog 'step_cb': found map 3 (G2, sec 7, off 96) for insn #214
libbpf: sec '.rel.text': relo #22: insn #219 against 'G2'
libbpf: prog 'step_cb': found map 3 (G2, sec 7, off 96) for insn #219
libbpf: sec '.rel.text': relo #23: insn #234 against 'G2'
libbpf: prog 'step_cb': found map 3 (G2, sec 7, off 96) for insn #234
libbpf: sec '.rel.text': relo #24: insn #240 against 'G2'
libbpf: prog 'step_cb': found map 3 (G2, sec 7, off 96) for insn #240
libbpf: sec '.rel.text': relo #25: insn #252 against 'TAPE'
libbpf: prog 'step_cb': found map 1 (TAPE, sec 7, off 32) for insn #252
libbpf: sec '.rel.text': relo #26: insn #264 against 'TAPE'
libbpf: prog 'step_cb': found map 1 (TAPE, sec 7, off 32) for insn #264
libbpf: sec '.rel.text': relo #27: insn #275 against 'G3'
libbpf: prog 'step_cb': found map 4 (G3, sec 7, off 128) for insn #275
libbpf: sec '.rel.text': relo #28: insn #281 against 'G3'
libbpf: prog 'step_cb': found map 4 (G3, sec 7, off 128) for insn #281
libbpf: sec '.rel.text': relo #29: insn #289 against 'G3'
libbpf: prog 'step_cb': found map 4 (G3, sec 7, off 128) for insn #289
libbpf: sec '.rel.text': relo #30: insn #294 against 'G3'
libbpf: prog 'step_cb': found map 4 (G3, sec 7, off 128) for insn #294
libbpf: sec '.rel.text': relo #31: insn #308 against 'G3'
libbpf: prog 'step_cb': found map 4 (G3, sec 7, off 128) for insn #308
libbpf: sec '.rel.text': relo #32: insn #314 against 'G3'
libbpf: prog 'step_cb': found map 4 (G3, sec 7, off 128) for insn #314
libbpf: sec '.rel.text': relo #33: insn #326 against 'TAPE'
libbpf: prog 'step_cb': found map 1 (TAPE, sec 7, off 32) for insn #326
libbpf: sec '.rel.text': relo #34: insn #338 against 'TAPE'
libbpf: prog 'step_cb': found map 1 (TAPE, sec 7, off 32) for insn #338
libbpf: sec '.rel.text': relo #35: insn #349 against 'G4'
libbpf: prog 'step_cb': found map 5 (G4, sec 7, off 160) for insn #349
libbpf: sec '.rel.text': relo #36: insn #355 against 'G4'
libbpf: prog 'step_cb': found map 5 (G4, sec 7, off 160) for insn #355
libbpf: sec '.rel.text': relo #37: insn #363 against 'G4'
libbpf: prog 'step_cb': found map 5 (G4, sec 7, off 160) for insn #363
libbpf: sec '.rel.text': relo #38: insn #368 against 'G4'
libbpf: prog 'step_cb': found map 5 (G4, sec 7, off 160) for insn #368
libbpf: sec '.rel.text': relo #39: insn #382 against 'G4'
libbpf: prog 'step_cb': found map 5 (G4, sec 7, off 160) for insn #382
libbpf: sec '.rel.text': relo #40: insn #388 against 'G4'
libbpf: prog 'step_cb': found map 5 (G4, sec 7, off 160) for insn #388
libbpf: sec '.rel.text': relo #41: insn #400 against 'TAPE'
libbpf: prog 'step_cb': found map 1 (TAPE, sec 7, off 32) for insn #400
libbpf: sec '.rel.text': relo #42: insn #412 against 'TAPE'
libbpf: prog 'step_cb': found map 1 (TAPE, sec 7, off 32) for insn #412
libbpf: sec '.rel.text': relo #43: insn #423 against 'G5'
libbpf: prog 'step_cb': found map 6 (G5, sec 7, off 192) for insn #423
libbpf: sec '.rel.text': relo #44: insn #429 against 'G5'
libbpf: prog 'step_cb': found map 6 (G5, sec 7, off 192) for insn #429
libbpf: sec '.rel.text': relo #45: insn #437 against 'G5'
libbpf: prog 'step_cb': found map 6 (G5, sec 7, off 192) for insn #437
libbpf: sec '.rel.text': relo #46: insn #442 against 'G5'
libbpf: prog 'step_cb': found map 6 (G5, sec 7, off 192) for insn #442
libbpf: sec '.rel.text': relo #47: insn #456 against 'G5'
libbpf: prog 'step_cb': found map 6 (G5, sec 7, off 192) for insn #456
libbpf: sec '.rel.text': relo #48: insn #462 against 'G5'
libbpf: prog 'step_cb': found map 6 (G5, sec 7, off 192) for insn #462
libbpf: sec '.rel.text': relo #49: insn #474 against 'TAPE'
libbpf: prog 'step_cb': found map 1 (TAPE, sec 7, off 32) for insn #474
libbpf: sec '.rel.text': relo #50: insn #486 against 'TAPE'
libbpf: prog 'step_cb': found map 1 (TAPE, sec 7, off 32) for insn #486
libbpf: sec '.rel.text': relo #51: insn #497 against 'G6'
libbpf: prog 'step_cb': found map 7 (G6, sec 7, off 224) for insn #497
libbpf: sec '.rel.text': relo #52: insn #503 against 'G6'
libbpf: prog 'step_cb': found map 7 (G6, sec 7, off 224) for insn #503
libbpf: sec '.rel.text': relo #53: insn #511 against 'G6'
libbpf: prog 'step_cb': found map 7 (G6, sec 7, off 224) for insn #511
libbpf: sec '.rel.text': relo #54: insn #516 against 'G6'
libbpf: prog 'step_cb': found map 7 (G6, sec 7, off 224) for insn #516
libbpf: sec '.rel.text': relo #55: insn #531 against 'G6'
libbpf: prog 'step_cb': found map 7 (G6, sec 7, off 224) for insn #531
libbpf: sec '.rel.text': relo #56: insn #537 against 'G6'
libbpf: prog 'step_cb': found map 7 (G6, sec 7, off 224) for insn #537
libbpf: sec '.rel.text': relo #57: insn #549 against 'TAPE'
libbpf: prog 'step_cb': found map 1 (TAPE, sec 7, off 32) for insn #549
libbpf: sec '.rel.text': relo #58: insn #561 against 'TAPE'
libbpf: prog 'step_cb': found map 1 (TAPE, sec 7, off 32) for insn #561
libbpf: sec '.rel.text': relo #59: insn #572 against 'G7'
libbpf: prog 'step_cb': found map 8 (G7, sec 7, off 256) for insn #572
libbpf: sec '.rel.text': relo #60: insn #578 against 'G7'
libbpf: prog 'step_cb': found map 8 (G7, sec 7, off 256) for insn #578
libbpf: sec '.rel.text': relo #61: insn #586 against 'G7'
libbpf: prog 'step_cb': found map 8 (G7, sec 7, off 256) for insn #586
libbpf: sec '.rel.text': relo #62: insn #591 against 'G7'
libbpf: prog 'step_cb': found map 8 (G7, sec 7, off 256) for insn #591
libbpf: sec '.rel.text': relo #63: insn #605 against 'G7'
libbpf: prog 'step_cb': found map 8 (G7, sec 7, off 256) for insn #605
libbpf: sec '.rel.text': relo #64: insn #611 against 'G7'
libbpf: prog 'step_cb': found map 8 (G7, sec 7, off 256) for insn #611
libbpf: sec '.rel.text': relo #65: insn #623 against 'TAPE'
libbpf: prog 'step_cb': found map 1 (TAPE, sec 7, off 32) for insn #623
libbpf: sec '.rel.text': relo #66: insn #635 against 'TAPE'
libbpf: prog 'step_cb': found map 1 (TAPE, sec 7, off 32) for insn #635
libbpf: sec '.rel.text': relo #67: insn #646 against 'G8'
libbpf: prog 'step_cb': found map 9 (G8, sec 7, off 288) for insn #646
libbpf: sec '.rel.text': relo #68: insn #652 against 'G8'
libbpf: prog 'step_cb': found map 9 (G8, sec 7, off 288) for insn #652
libbpf: sec '.rel.text': relo #69: insn #660 against 'G8'
libbpf: prog 'step_cb': found map 9 (G8, sec 7, off 288) for insn #660
libbpf: sec '.rel.text': relo #70: insn #665 against 'G8'
libbpf: prog 'step_cb': found map 9 (G8, sec 7, off 288) for insn #665
libbpf: sec '.rel.text': relo #71: insn #679 against 'G8'
libbpf: prog 'step_cb': found map 9 (G8, sec 7, off 288) for insn #679
libbpf: sec '.rel.text': relo #72: insn #685 against 'G8'
libbpf: prog 'step_cb': found map 9 (G8, sec 7, off 288) for insn #685
libbpf: sec '.rel.text': relo #73: insn #701 against 'TAPE'
libbpf: prog 'step_cb': found map 1 (TAPE, sec 7, off 32) for insn #701
libbpf: sec '.rel.text': relo #74: insn #713 against 'TAPE'
libbpf: prog 'step_cb': found map 1 (TAPE, sec 7, off 32) for insn #713
libbpf: sec '.rel.text': relo #75: insn #726 against 'TAPE'
libbpf: prog 'step_cb': found map 1 (TAPE, sec 7, off 32) for insn #726
libbpf: sec '.rel.text': relo #76: insn #740 against 'TAPE'
libbpf: prog 'step_cb': found map 1 (TAPE, sec 7, off 32) for insn #740
libbpf: sec '.relsyscall': collecting relocation for section(4) 'syscall'
libbpf: sec '.relsyscall': relo #0: insn #4 against 'TAPE'
libbpf: prog 'wm_nand': found map 1 (TAPE, sec 7, off 32) for insn #4
libbpf: sec '.relsyscall': relo #1: insn #15 against 'TAPE'
libbpf: prog 'wm_nand': found map 1 (TAPE, sec 7, off 32) for insn #15
libbpf: sec '.relsyscall': relo #2: insn #23 against 'G0'
libbpf: prog 'wm_nand': found map 0 (G0, sec 7, off 0) for insn #23
libbpf: sec '.relsyscall': relo #3: insn #29 against 'G0'
libbpf: prog 'wm_nand': found map 0 (G0, sec 7, off 0) for insn #29
libbpf: sec '.relsyscall': relo #4: insn #36 against 'G0'
libbpf: prog 'wm_nand': found map 0 (G0, sec 7, off 0) for insn #36
libbpf: sec '.relsyscall': relo #5: insn #41 against 'G0'
libbpf: prog 'wm_nand': found map 0 (G0, sec 7, off 0) for insn #41
libbpf: sec '.relsyscall': relo #6: insn #56 against 'G0'
libbpf: prog 'wm_nand': found map 0 (G0, sec 7, off 0) for insn #56
libbpf: sec '.relsyscall': relo #7: insn #62 against 'G0'
libbpf: prog 'wm_nand': found map 0 (G0, sec 7, off 0) for insn #62
libbpf: sec '.relsyscall': relo #8: insn #74 against 'TAPE'
libbpf: prog 'wm_nand': found map 1 (TAPE, sec 7, off 32) for insn #74
libbpf: sec '.relsyscall': relo #9: insn #86 against 'TAPE'
libbpf: prog 'wm_nand': found map 1 (TAPE, sec 7, off 32) for insn #86
libbpf: sec '.relsyscall': relo #10: insn #100 against 'TAPE'
libbpf: prog 'wm_nand': found map 1 (TAPE, sec 7, off 32) for insn #100
libbpf: sec '.relsyscall': relo #11: insn #110 against 'TAPE'
libbpf: prog 'wm_fa': found map 1 (TAPE, sec 7, off 32) for insn #4
libbpf: sec '.relsyscall': relo #12: insn #123 against 'TAPE'
libbpf: prog 'wm_fa': found map 1 (TAPE, sec 7, off 32) for insn #17
libbpf: sec '.relsyscall': relo #13: insn #134 against 'TAPE'
libbpf: prog 'wm_fa': found map 1 (TAPE, sec 7, off 32) for insn #28
libbpf: sec '.relsyscall': relo #14: insn #149 against 'G0'
libbpf: prog 'wm_fa': found map 0 (G0, sec 7, off 0) for insn #43
libbpf: sec '.relsyscall': relo #15: insn #155 against 'G0'
libbpf: prog 'wm_fa': found map 0 (G0, sec 7, off 0) for insn #49
libbpf: sec '.relsyscall': relo #16: insn #162 against 'G0'
libbpf: prog 'wm_fa': found map 0 (G0, sec 7, off 0) for insn #56
libbpf: sec '.relsyscall': relo #17: insn #167 against 'G0'
libbpf: prog 'wm_fa': found map 0 (G0, sec 7, off 0) for insn #61
libbpf: sec '.relsyscall': relo #18: insn #183 against 'G0'
libbpf: prog 'wm_fa': found map 0 (G0, sec 7, off 0) for insn #77
libbpf: sec '.relsyscall': relo #19: insn #189 against 'G0'
libbpf: prog 'wm_fa': found map 0 (G0, sec 7, off 0) for insn #83
libbpf: sec '.relsyscall': relo #20: insn #201 against 'TAPE'
libbpf: prog 'wm_fa': found map 1 (TAPE, sec 7, off 32) for insn #95
libbpf: sec '.relsyscall': relo #21: insn #213 against 'TAPE'
libbpf: prog 'wm_fa': found map 1 (TAPE, sec 7, off 32) for insn #107
libbpf: sec '.relsyscall': relo #22: insn #223 against 'G1'
libbpf: prog 'wm_fa': found map 2 (G1, sec 7, off 64) for insn #117
libbpf: sec '.relsyscall': relo #23: insn #229 against 'G1'
libbpf: prog 'wm_fa': found map 2 (G1, sec 7, off 64) for insn #123
libbpf: sec '.relsyscall': relo #24: insn #236 against 'G1'
libbpf: prog 'wm_fa': found map 2 (G1, sec 7, off 64) for insn #130
libbpf: sec '.relsyscall': relo #25: insn #241 against 'G1'
libbpf: prog 'wm_fa': found map 2 (G1, sec 7, off 64) for insn #135
libbpf: sec '.relsyscall': relo #26: insn #257 against 'G1'
libbpf: prog 'wm_fa': found map 2 (G1, sec 7, off 64) for insn #151
libbpf: sec '.relsyscall': relo #27: insn #263 against 'G1'
libbpf: prog 'wm_fa': found map 2 (G1, sec 7, off 64) for insn #157
libbpf: sec '.relsyscall': relo #28: insn #275 against 'TAPE'
libbpf: prog 'wm_fa': found map 1 (TAPE, sec 7, off 32) for insn #169
libbpf: sec '.relsyscall': relo #29: insn #287 against 'TAPE'
libbpf: prog 'wm_fa': found map 1 (TAPE, sec 7, off 32) for insn #181
libbpf: sec '.relsyscall': relo #30: insn #297 against 'G2'
libbpf: prog 'wm_fa': found map 3 (G2, sec 7, off 96) for insn #191
libbpf: sec '.relsyscall': relo #31: insn #303 against 'G2'
libbpf: prog 'wm_fa': found map 3 (G2, sec 7, off 96) for insn #197
libbpf: sec '.relsyscall': relo #32: insn #311 against 'G2'
libbpf: prog 'wm_fa': found map 3 (G2, sec 7, off 96) for insn #205
libbpf: sec '.relsyscall': relo #33: insn #316 against 'G2'
libbpf: prog 'wm_fa': found map 3 (G2, sec 7, off 96) for insn #210
libbpf: sec '.relsyscall': relo #34: insn #331 against 'G2'
libbpf: prog 'wm_fa': found map 3 (G2, sec 7, off 96) for insn #225
libbpf: sec '.relsyscall': relo #35: insn #337 against 'G2'
libbpf: prog 'wm_fa': found map 3 (G2, sec 7, off 96) for insn #231
libbpf: sec '.relsyscall': relo #36: insn #349 against 'TAPE'
libbpf: prog 'wm_fa': found map 1 (TAPE, sec 7, off 32) for insn #243
libbpf: sec '.relsyscall': relo #37: insn #361 against 'TAPE'
libbpf: prog 'wm_fa': found map 1 (TAPE, sec 7, off 32) for insn #255
libbpf: sec '.relsyscall': relo #38: insn #372 against 'G3'
libbpf: prog 'wm_fa': found map 4 (G3, sec 7, off 128) for insn #266
libbpf: sec '.relsyscall': relo #39: insn #378 against 'G3'
libbpf: prog 'wm_fa': found map 4 (G3, sec 7, off 128) for insn #272
libbpf: sec '.relsyscall': relo #40: insn #386 against 'G3'
libbpf: prog 'wm_fa': found map 4 (G3, sec 7, off 128) for insn #280
libbpf: sec '.relsyscall': relo #41: insn #391 against 'G3'
libbpf: prog 'wm_fa': found map 4 (G3, sec 7, off 128) for insn #285
libbpf: sec '.relsyscall': relo #42: insn #405 against 'G3'
libbpf: prog 'wm_fa': found map 4 (G3, sec 7, off 128) for insn #299
libbpf: sec '.relsyscall': relo #43: insn #411 against 'G3'
libbpf: prog 'wm_fa': found map 4 (G3, sec 7, off 128) for insn #305
libbpf: sec '.relsyscall': relo #44: insn #423 against 'TAPE'
libbpf: prog 'wm_fa': found map 1 (TAPE, sec 7, off 32) for insn #317
libbpf: sec '.relsyscall': relo #45: insn #435 against 'TAPE'
libbpf: prog 'wm_fa': found map 1 (TAPE, sec 7, off 32) for insn #329
libbpf: sec '.relsyscall': relo #46: insn #446 against 'G4'
libbpf: prog 'wm_fa': found map 5 (G4, sec 7, off 160) for insn #340
libbpf: sec '.relsyscall': relo #47: insn #452 against 'G4'
libbpf: prog 'wm_fa': found map 5 (G4, sec 7, off 160) for insn #346
libbpf: sec '.relsyscall': relo #48: insn #460 against 'G4'
libbpf: prog 'wm_fa': found map 5 (G4, sec 7, off 160) for insn #354
libbpf: sec '.relsyscall': relo #49: insn #465 against 'G4'
libbpf: prog 'wm_fa': found map 5 (G4, sec 7, off 160) for insn #359
libbpf: sec '.relsyscall': relo #50: insn #479 against 'G4'
libbpf: prog 'wm_fa': found map 5 (G4, sec 7, off 160) for insn #373
libbpf: sec '.relsyscall': relo #51: insn #485 against 'G4'
libbpf: prog 'wm_fa': found map 5 (G4, sec 7, off 160) for insn #379
libbpf: sec '.relsyscall': relo #52: insn #497 against 'TAPE'
libbpf: prog 'wm_fa': found map 1 (TAPE, sec 7, off 32) for insn #391
libbpf: sec '.relsyscall': relo #53: insn #509 against 'TAPE'
libbpf: prog 'wm_fa': found map 1 (TAPE, sec 7, off 32) for insn #403
libbpf: sec '.relsyscall': relo #54: insn #520 against 'G5'
libbpf: prog 'wm_fa': found map 6 (G5, sec 7, off 192) for insn #414
libbpf: sec '.relsyscall': relo #55: insn #526 against 'G5'
libbpf: prog 'wm_fa': found map 6 (G5, sec 7, off 192) for insn #420
libbpf: sec '.relsyscall': relo #56: insn #534 against 'G5'
libbpf: prog 'wm_fa': found map 6 (G5, sec 7, off 192) for insn #428
libbpf: sec '.relsyscall': relo #57: insn #539 against 'G5'
libbpf: prog 'wm_fa': found map 6 (G5, sec 7, off 192) for insn #433
libbpf: sec '.relsyscall': relo #58: insn #553 against 'G5'
libbpf: prog 'wm_fa': found map 6 (G5, sec 7, off 192) for insn #447
libbpf: sec '.relsyscall': relo #59: insn #559 against 'G5'
libbpf: prog 'wm_fa': found map 6 (G5, sec 7, off 192) for insn #453
libbpf: sec '.relsyscall': relo #60: insn #571 against 'TAPE'
libbpf: prog 'wm_fa': found map 1 (TAPE, sec 7, off 32) for insn #465
libbpf: sec '.relsyscall': relo #61: insn #583 against 'TAPE'
libbpf: prog 'wm_fa': found map 1 (TAPE, sec 7, off 32) for insn #477
libbpf: sec '.relsyscall': relo #62: insn #594 against 'G6'
libbpf: prog 'wm_fa': found map 7 (G6, sec 7, off 224) for insn #488
libbpf: sec '.relsyscall': relo #63: insn #600 against 'G6'
libbpf: prog 'wm_fa': found map 7 (G6, sec 7, off 224) for insn #494
libbpf: sec '.relsyscall': relo #64: insn #608 against 'G6'
libbpf: prog 'wm_fa': found map 7 (G6, sec 7, off 224) for insn #502
libbpf: sec '.relsyscall': relo #65: insn #613 against 'G6'
libbpf: prog 'wm_fa': found map 7 (G6, sec 7, off 224) for insn #507
libbpf: sec '.relsyscall': relo #66: insn #628 against 'G6'
libbpf: prog 'wm_fa': found map 7 (G6, sec 7, off 224) for insn #522
libbpf: sec '.relsyscall': relo #67: insn #634 against 'G6'
libbpf: prog 'wm_fa': found map 7 (G6, sec 7, off 224) for insn #528
libbpf: sec '.relsyscall': relo #68: insn #646 against 'TAPE'
libbpf: prog 'wm_fa': found map 1 (TAPE, sec 7, off 32) for insn #540
libbpf: sec '.relsyscall': relo #69: insn #658 against 'TAPE'
libbpf: prog 'wm_fa': found map 1 (TAPE, sec 7, off 32) for insn #552
libbpf: sec '.relsyscall': relo #70: insn #669 against 'G7'
libbpf: prog 'wm_fa': found map 8 (G7, sec 7, off 256) for insn #563
libbpf: sec '.relsyscall': relo #71: insn #675 against 'G7'
libbpf: prog 'wm_fa': found map 8 (G7, sec 7, off 256) for insn #569
libbpf: sec '.relsyscall': relo #72: insn #683 against 'G7'
libbpf: prog 'wm_fa': found map 8 (G7, sec 7, off 256) for insn #577
libbpf: sec '.relsyscall': relo #73: insn #688 against 'G7'
libbpf: prog 'wm_fa': found map 8 (G7, sec 7, off 256) for insn #582
libbpf: sec '.relsyscall': relo #74: insn #702 against 'G7'
libbpf: prog 'wm_fa': found map 8 (G7, sec 7, off 256) for insn #596
libbpf: sec '.relsyscall': relo #75: insn #708 against 'G7'
libbpf: prog 'wm_fa': found map 8 (G7, sec 7, off 256) for insn #602
libbpf: sec '.relsyscall': relo #76: insn #720 against 'TAPE'
libbpf: prog 'wm_fa': found map 1 (TAPE, sec 7, off 32) for insn #614
libbpf: sec '.relsyscall': relo #77: insn #732 against 'TAPE'
libbpf: prog 'wm_fa': found map 1 (TAPE, sec 7, off 32) for insn #626
libbpf: sec '.relsyscall': relo #78: insn #743 against 'G8'
libbpf: prog 'wm_fa': found map 9 (G8, sec 7, off 288) for insn #637
libbpf: sec '.relsyscall': relo #79: insn #749 against 'G8'
libbpf: prog 'wm_fa': found map 9 (G8, sec 7, off 288) for insn #643
libbpf: sec '.relsyscall': relo #80: insn #757 against 'G8'
libbpf: prog 'wm_fa': found map 9 (G8, sec 7, off 288) for insn #651
libbpf: sec '.relsyscall': relo #81: insn #762 against 'G8'
libbpf: prog 'wm_fa': found map 9 (G8, sec 7, off 288) for insn #656
libbpf: sec '.relsyscall': relo #82: insn #776 against 'G8'
libbpf: prog 'wm_fa': found map 9 (G8, sec 7, off 288) for insn #670
libbpf: sec '.relsyscall': relo #83: insn #782 against 'G8'
libbpf: prog 'wm_fa': found map 9 (G8, sec 7, off 288) for insn #676
libbpf: sec '.relsyscall': relo #84: insn #794 against 'TAPE'
libbpf: prog 'wm_fa': found map 1 (TAPE, sec 7, off 32) for insn #688
libbpf: sec '.relsyscall': relo #85: insn #806 against 'TAPE'
libbpf: prog 'wm_fa': found map 1 (TAPE, sec 7, off 32) for insn #700
libbpf: sec '.relsyscall': relo #86: insn #822 against 'TAPE'
libbpf: prog 'wm_fa': found map 1 (TAPE, sec 7, off 32) for insn #716
libbpf: sec '.relsyscall': relo #87: insn #835 against 'TAPE'
libbpf: prog 'wm_fa': found map 1 (TAPE, sec 7, off 32) for insn #729
libbpf: sec '.relsyscall': relo #88: insn #851 against 'TAPE'
libbpf: prog 'wm_adder32': found map 1 (TAPE, sec 7, off 32) for insn #10
libbpf: sec '.relsyscall': relo #89: insn #858 against 'TAPE'
libbpf: prog 'wm_adder32': found map 1 (TAPE, sec 7, off 32) for insn #17
libbpf: sec '.relsyscall': relo #90: insn #864 against '.text'
libbpf: object 'wm': failed (-95) to create BPF token from '/sys/fs/bpf', skipping optional step...
libbpf: prog 'wm_adder32': added 746 insns from sub-prog 'step_cb'
libbpf: prog 'wm_adder32': insn #23 relocated, imm 6 points to subprog 'step_cb' (now at 30 offset)
libbpf: map 'G0': created successfully, fd=4
libbpf: map 'TAPE': created successfully, fd=5
libbpf: map 'G1': created successfully, fd=6
libbpf: map 'G2': created successfully, fd=7
libbpf: map 'G3': created successfully, fd=8
libbpf: map 'G4': created successfully, fd=9
libbpf: map 'G5': created successfully, fd=10
libbpf: map 'G6': created successfully, fd=11
libbpf: map 'G7': created successfully, fd=12
libbpf: map 'G8': created successfully, fd=13
libbpf: prog 'wm_nand': -- BEGIN PROG LOAD LOG --
func#0 @0
Live regs before insn:
      0: .......... (b7) r6 = 0
      1: ......6... (63) *(u32 *)(r10 -8) = r6
      2: ......6... (bf) r2 = r10
      3: ..2...6... (07) r2 += -8
      4: ..2...6... (18) r1 = 0xffff0000ccc96000
      6: .12...6... (85) call bpf_map_lookup_elem#1
      7: 0.....6... (b7) r9 = 0
      8: 0.....6..9 (15) if r0 == 0x0 goto pc+2
      9: 0.....6... (79) r9 = *(u64 *)(r0 +0)
     10: ......6..9 (57) r9 &= 1
     11: ......6..9 (b7) r7 = 1
     12: ......67.9 (63) *(u32 *)(r10 -8) = r7
     13: ......67.9 (bf) r2 = r10
     14: ..2...67.9 (07) r2 += -8
     15: ..2...67.9 (18) r1 = 0xffff0000ccc96000
     17: .12...67.9 (85) call bpf_map_lookup_elem#1
     18: ......67.9 (63) *(u32 *)(r10 -16) = r6
     19: .......7.9 (63) *(u32 *)(r10 -20) = r7
     20: .......7.9 (7b) *(u64 *)(r10 -32) = r7
     21: .........9 (bf) r6 = r10
     22: ......6..9 (07) r6 += -16
     23: ......6..9 (18) r1 = 0xffff0000c8517000
     25: .1....6..9 (bf) r2 = r6
     26: .12...6..9 (85) call bpf_map_delete_elem#3
     27: ......6..9 (bf) r2 = r10
     28: ..2...6..9 (07) r2 += -20
     29: ..2...6..9 (18) r1 = 0xffff0000c8517000
     31: .12...6..9 (85) call bpf_map_delete_elem#3
     32: ......6..9 (b7) r1 = 2
     33: .1....6..9 (63) *(u32 *)(r10 -36) = r1
     34: ......6..9 (bf) r2 = r10
     35: ..2...6..9 (07) r2 += -36
     36: ..2...6..9 (18) r1 = 0xffff0000c8517000
     38: .12...6..9 (85) call bpf_map_delete_elem#3
     39: ......6..9 (bf) r7 = r10
     40: ......67.9 (07) r7 += -32
     41: ......67.9 (18) r1 = 0xffff0000c8517000
     43: .1....67.9 (bf) r2 = r6
     44: .12...67.9 (bf) r3 = r7
     45: .123..67.9 (b7) r4 = 1
     46: .1234.67.9 (85) call bpf_map_update_elem#2
     47: 0.....67.9 (bf) r8 = r0
     48: ......6789 (61) r1 = *(u32 *)(r10 -16)
     49: .1....6789 (61) r2 = *(u32 *)(r10 -20)
     50: .12...6789 (1f) r2 -= r1
     51: .12...6789 (2f) r2 *= r9
     52: .12...678. (0f) r2 += r1
     53: ..2...678. (63) *(u32 *)(r10 -40) = r2
     54: ......678. (bf) r2 = r10
     55: ..2...678. (07) r2 += -40
     56: ..2...678. (18) r1 = 0xffff0000c8517000
     58: .12...678. (bf) r3 = r7
     59: .123..678. (b7) r4 = 0
     60: .1234.678. (85) call bpf_map_update_elem#2
     61: 0.....678. (4f) r8 |= r0
     62: ......678. (18) r1 = 0xffff0000c8517000
     64: .1....678. (bf) r2 = r6
     65: .12....78. (bf) r3 = r7
     66: .123....8. (b7) r4 = 0
     67: .1234...8. (85) call bpf_map_update_elem#2
     68: 0.......8. (bf) r6 = r0
     69: ......6.8. (15) if r8 == 0x0 goto pc+20
     70: ......6... (b7) r1 = 161
     71: .1....6... (63) *(u32 *)(r10 -12) = r1
     72: ......6... (bf) r2 = r10
     73: ..2...6... (07) r2 += -12
     74: ..2...6... (18) r1 = 0xffff0000ccc96000
     76: .12...6... (85) call bpf_map_lookup_elem#1
     77: 0.....6... (b7) r1 = 1
     78: 01....6... (15) if r0 == 0x0 goto pc+2
     79: 0.....6... (79) r1 = *(u64 *)(r0 +0)
     80: .1....6... (07) r1 += 1
     81: .1....6... (7b) *(u64 *)(r10 -8) = r1
     82: ......6... (bf) r2 = r10
     83: ..2...6... (07) r2 += -12
     84: ..2...6... (bf) r3 = r10
     85: ..23..6... (07) r3 += -8
     86: ..23..6... (18) r1 = 0xffff0000ccc96000
     88: .123..6... (b7) r4 = 0
     89: .1234.6... (85) call bpf_map_update_elem#2
     90: ......6... (b7) r1 = 2
     91: .1....6... (63) *(u32 *)(r10 -32) = r1
     92: ......6... (b7) r1 = 1
     93: .1....6... (15) if r6 == 0x0 goto pc+1
     94: .......... (b7) r1 = 0
     95: .1........ (7b) *(u64 *)(r10 -8) = r1
     96: .......... (bf) r2 = r10
     97: ..2....... (07) r2 += -32
     98: ..2....... (bf) r3 = r10
     99: ..23...... (07) r3 += -8
    100: ..23...... (18) r1 = 0xffff0000ccc96000
    102: .123...... (b7) r4 = 0
    103: .1234..... (85) call bpf_map_update_elem#2
    104: .......... (b7) r0 = 0
    105: 0......... (95) exit
arg#0 reference type('UNKNOWN ') size cannot be determined: -22
0: R1=ctx() R10=fp0
; int wm_nand(void *ctx) @ wm.bpf.c:117
0: (b7) r6 = 0                        ; R6_w=0
1: (63) *(u32 *)(r10 -8) = r6         ; R6_w=0 R10=fp0 fp-8=????0
2: (bf) r2 = r10                      ; R2_w=fp0 R10=fp0
;  @ wm.bpf.c:0
3: (07) r2 += -8                      ; R2_w=fp-8
; __u64 *p = bpf_map_lookup_elem(&TAPE, &idx); @ wm.bpf.c:42
4: (18) r1 = 0xffff0000ccc96000       ; R1_w=map_ptr(map=TAPE,ks=4,vs=8)
6: (85) call bpf_map_lookup_elem#1
mark_precise: frame0: last_idx 6 first_idx 0 subseq_idx -1 
mark_precise: frame0: regs= stack=-8 before 4: (18) r1 = 0xffff0000ccc96000
mark_precise: frame0: regs= stack=-8 before 3: (07) r2 += -8
mark_precise: frame0: regs= stack=-8 before 2: (bf) r2 = r10
mark_precise: frame0: regs= stack=-8 before 1: (63) *(u32 *)(r10 -8) = r6
mark_precise: frame0: regs=r6 stack= before 0: (b7) r6 = 0
7: R0_w=map_value(map=TAPE,ks=4,vs=8)
7: (b7) r9 = 0                        ; R9_w=0
; return p ? (*p & 1ull) : 0; @ wm.bpf.c:43
8: (15) if r0 == 0x0 goto pc+2        ; R0_w=map_value(map=TAPE,ks=4,vs=8)
9: (79) r9 = *(u64 *)(r0 +0)          ; R0_w=map_value(map=TAPE,ks=4,vs=8) R9_w=scalar()
; __u64 out = NAND_GATE(G0, a, b); @ wm.bpf.c:122
10: (57) r9 &= 1                      ; R9=scalar(smin=smin32=0,smax=umax=smax32=umax32=1,var_off=(0x0; 0x1))
11: (b7) r7 = 1                       ; R7_w=1
12: (63) *(u32 *)(r10 -8) = r7        ; R7_w=1 R10=fp0 fp-8=????1
13: (bf) r2 = r10                     ; R2_w=fp0 R10=fp0
;  @ wm.bpf.c:0
14: (07) r2 += -8                     ; R2_w=fp-8
; __u64 *p = bpf_map_lookup_elem(&TAPE, &idx); @ wm.bpf.c:42
15: (18) r1 = 0xffff0000ccc96000      ; R1_w=map_ptr(map=TAPE,ks=4,vs=8)
17: (85) call bpf_map_lookup_elem#1
mark_precise: frame0: last_idx 17 first_idx 11 subseq_idx -1 
mark_precise: frame0: regs= stack=-8 before 15: (18) r1 = 0xffff0000ccc96000
mark_precise: frame0: regs= stack=-8 before 14: (07) r2 += -8
mark_precise: frame0: regs= stack=-8 before 13: (bf) r2 = r10
mark_precise: frame0: regs= stack=-8 before 12: (63) *(u32 *)(r10 -8) = r7
mark_precise: frame0: regs=r7 stack= before 11: (b7) r7 = 1
18: R0_w=map_value(map=TAPE,ks=4,vs=8)
; __u64 out = NAND_GATE(G0, a, b); @ wm.bpf.c:122
18: (63) *(u32 *)(r10 -16) = r6       ; R6=0 R10=fp0 fp-16=????0
19: (63) *(u32 *)(r10 -20) = r7       ; R7_w=1 R10=fp0 fp-24=mmmm????
20: (7b) *(u64 *)(r10 -32) = r7       ; R7_w=1 R10=fp0 fp-32_w=1
21: (bf) r6 = r10                     ; R6_w=fp0 R10=fp0
;  @ wm.bpf.c:0
22: (07) r6 += -16                    ; R6_w=fp-16
; __u64 out = NAND_GATE(G0, a, b); @ wm.bpf.c:122
23: (18) r1 = 0xffff0000c8517000      ; R1_w=map_ptr(map=G0,ks=4,vs=8)
25: (bf) r2 = r6                      ; R2_w=fp-16 R6_w=fp-16
26: (85) call bpf_map_delete_elem#3   ; R0=scalar()
27: (bf) r2 = r10                     ; R2_w=fp0 R10=fp0
;  @ wm.bpf.c:0
28: (07) r2 += -20                    ; R2_w=fp-20
; __u64 out = NAND_GATE(G0, a, b); @ wm.bpf.c:122
29: (18) r1 = 0xffff0000c8517000      ; R1_w=map_ptr(map=G0,ks=4,vs=8)
31: (85) call bpf_map_delete_elem#3   ; R0_w=scalar()
32: (b7) r1 = 2                       ; R1_w=2
33: (63) *(u32 *)(r10 -36) = r1       ; R1_w=2 R10=fp0 fp-40=mmmm????
34: (bf) r2 = r10                     ; R2_w=fp0 R10=fp0
;  @ wm.bpf.c:0
35: (07) r2 += -36                    ; R2_w=fp-36
; __u64 out = NAND_GATE(G0, a, b); @ wm.bpf.c:122
36: (18) r1 = 0xffff0000c8517000      ; R1_w=map_ptr(map=G0,ks=4,vs=8)
38: (85) call bpf_map_delete_elem#3   ; R0=scalar()
39: (bf) r7 = r10                     ; R7_w=fp0 R10=fp0
;  @ wm.bpf.c:0
40: (07) r7 += -32                    ; R7_w=fp-32
; __u64 out = NAND_GATE(G0, a, b); @ wm.bpf.c:122
41: (18) r1 = 0xffff0000c8517000      ; R1_w=map_ptr(map=G0,ks=4,vs=8)
43: (bf) r2 = r6                      ; R2_w=fp-16 R6=fp-16
44: (bf) r3 = r7                      ; R3_w=fp-32 R7_w=fp-32
45: (b7) r4 = 1                       ; R4_w=1
46: (85) call bpf_map_update_elem#2   ; R0_w=scalar()
47: (bf) r8 = r0                      ; R0_w=scalar(id=1) R8_w=scalar(id=1)
48: (61) r1 = *(u32 *)(r10 -16)       ; R1_w=0 R10=fp0 fp-16=????0
49: (61) r2 = *(u32 *)(r10 -20)       ; R2_w=scalar(smin=0,smax=umax=0xffffffff,var_off=(0x0; 0xffffffff)) R10=fp0 fp-24=mmmm????
50: (1f) r2 -= r1                     ; R1_w=0 R2_w=scalar(smin=0,smax=umax=0xffffffff,var_off=(0x0; 0xffffffff))
51: (2f) r2 *= r9                     ; R2_w=scalar(smin=0,smax=umax=0xffffffff,var_off=(0x0; 0xffffffff)) R9=scalar(smin=smin32=0,smax=umax=smax32=umax32=1,var_off=(0x0; 0x1))
52: (0f) r2 += r1                     ; R1_w=0 R2_w=scalar(smin=0,smax=umax=0xffffffff,var_off=(0x0; 0xffffffff))
53: (63) *(u32 *)(r10 -40) = r2       ; R2_w=scalar(id=2,smin=0,smax=umax=0xffffffff,var_off=(0x0; 0xffffffff)) R10=fp0 fp-40=mmmmscalar(id=2,smin=0,smax=umax=0xffffffff,var_off=(0x0; 0xffffffff))
54: (bf) r2 = r10                     ; R2_w=fp0 R10=fp0
;  @ wm.bpf.c:0
55: (07) r2 += -40                    ; R2_w=fp-40
; __u64 out = NAND_GATE(G0, a, b); @ wm.bpf.c:122
56: (18) r1 = 0xffff0000c8517000      ; R1_w=map_ptr(map=G0,ks=4,vs=8)
58: (bf) r3 = r7                      ; R3_w=fp-32 R7_w=fp-32
59: (b7) r4 = 0                       ; R4_w=0
60: (85) call bpf_map_update_elem#2   ; R0=scalar()
61: (4f) r8 |= r0                     ; R0=scalar() R8_w=scalar()
62: (18) r1 = 0xffff0000c8517000      ; R1_w=map_ptr(map=G0,ks=4,vs=8)
64: (bf) r2 = r6                      ; R2_w=fp-16 R6=fp-16
65: (bf) r3 = r7                      ; R3_w=fp-32 R7=fp-32
66: (b7) r4 = 0                       ; R4_w=0
67: (85) call bpf_map_update_elem#2   ; R0_w=scalar()
68: (bf) r6 = r0                      ; R0_w=scalar(id=3) R6_w=scalar(id=3)
69: (15) if r8 == 0x0 goto pc+20      ; R8_w=scalar(umin=1)
70: (b7) r1 = 161                     ; R1_w=161
; __u32 idx = ERR_IDX; @ wm.bpf.c:54
71: (63) *(u32 *)(r10 -12) = r1       ; R1_w=161 R10=fp0 fp-16=mmmmmmmm
72: (bf) r2 = r10                     ; R2_w=fp0 R10=fp0
;  @ wm.bpf.c:0
73: (07) r2 += -12                    ; R2_w=fp-12
; __u64 *p = bpf_map_lookup_elem(&TAPE, &idx); @ wm.bpf.c:55
74: (18) r1 = 0xffff0000ccc96000      ; R1_w=map_ptr(map=TAPE,ks=4,vs=8)
76: (85) call bpf_map_lookup_elem#1   ; R0=map_value_or_null(id=4,map=TAPE,ks=4,vs=8)
77: (b7) r1 = 1                       ; R1_w=1
; __u64 v = (p ? *p : 0) + 1; @ wm.bpf.c:56
78: (15) if r0 == 0x0 goto pc+2       ; R0=map_value(map=TAPE,ks=4,vs=8)
79: (79) r1 = *(u64 *)(r0 +0)         ; R0=map_value(map=TAPE,ks=4,vs=8) R1_w=scalar()
80: (07) r1 += 1                      ; R1_w=scalar()
81: (7b) *(u64 *)(r10 -8) = r1        ; R1_w=scalar(id=5) R10=fp0 fp-8_w=scalar(id=5)
82: (bf) r2 = r10                     ; R2_w=fp0 R10=fp0
83: (07) r2 += -12                    ; R2_w=fp-12
84: (bf) r3 = r10                     ; R3_w=fp0 R10=fp0
85: (07) r3 += -8                     ; R3_w=fp-8
; bpf_map_update_elem(&TAPE, &idx, &v, BPF_ANY); @ wm.bpf.c:57
86: (18) r1 = 0xffff0000ccc96000      ; R1_w=map_ptr(map=TAPE,ks=4,vs=8)
88: (b7) r4 = 0                       ; R4_w=0
89: (85) call bpf_map_update_elem#2   ; R0=scalar()
90: (b7) r1 = 2                       ; R1_w=2
91: (63) *(u32 *)(r10 -32) = r1       ; R1_w=2 R10=fp0 fp-32=mmmm2
92: (b7) r1 = 1                       ; R1_w=1
; __u64 out = NAND_GATE(G0, a, b); @ wm.bpf.c:122
93: (15) if r6 == 0x0 goto pc+1       ; R6=scalar(id=3,umin=1)
94: (b7) r1 = 0                       ; R1_w=0
; v &= 1ull; @ wm.bpf.c:48
95: (7b) *(u64 *)(r10 -8) = r1        ; R1_w=0 R10=fp0 fp-8_w=0
96: (bf) r2 = r10                     ; R2_w=fp0 R10=fp0
;  @ wm.bpf.c:0
97: (07) r2 += -32                    ; R2_w=fp-32
98: (bf) r3 = r10                     ; R3_w=fp0 R10=fp0
99: (07) r3 += -8                     ; R3_w=fp-8
; bpf_map_update_elem(&TAPE, &idx, &v, BPF_ANY); @ wm.bpf.c:49
100: (18) r1 = 0xffff0000ccc96000     ; R1_w=map_ptr(map=TAPE,ks=4,vs=8)
102: (b7) r4 = 0                      ; R4_w=0
103: (85) call bpf_map_update_elem#2
mark_precise: frame0: last_idx 103 first_idx 90 subseq_idx -1 
mark_precise: frame0: regs= stack=-32 before 102: (b7) r4 = 0
mark_precise: frame0: regs= stack=-32 before 100: (18) r1 = 0xffff0000ccc96000
mark_precise: frame0: regs= stack=-32 before 99: (07) r3 += -8
mark_precise: frame0: regs= stack=-32 before 98: (bf) r3 = r10
mark_precise: frame0: regs= stack=-32 before 97: (07) r2 += -32
mark_precise: frame0: regs= stack=-32 before 96: (bf) r2 = r10
mark_precise: frame0: regs= stack=-32 before 95: (7b) *(u64 *)(r10 -8) = r1
mark_precise: frame0: regs= stack=-32 before 94: (b7) r1 = 0
mark_precise: frame0: regs= stack=-32 before 93: (15) if r6 == 0x0 goto pc+1
mark_precise: frame0: regs= stack=-32 before 92: (b7) r1 = 1
mark_precise: frame0: regs= stack=-32 before 91: (63) *(u32 *)(r10 -32) = r1
mark_precise: frame0: regs=r1 stack= before 90: (b7) r1 = 2
104: R0=scalar()
; return 0; @ wm.bpf.c:124
104: (b7) r0 = 0                      ; R0_w=0
105: (95) exit

from 93 to 95: R0=scalar() R1_w=1 R6=0 R7=fp-32 R8=scalar(umin=1) R9=scalar(smin=smin32=0,smax=umax=smax32=umax32=1,var_off=(0x0; 0x1)) R10=fp0 fp-8=scalar(id=5) fp-16=mmmmmmmm fp-24=mmmm???? fp-32=mmmm2 fp-40=mmmmscalar(id=2,smin=0,smax=umax=0xffffffff,var_off=(0x0; 0xffffffff))
95: R0=scalar() R1_w=1 R6=0 R7=fp-32 R8=scalar(umin=1) R9=scalar(smin=smin32=0,smax=umax=smax32=umax32=1,var_off=(0x0; 0x1)) R10=fp0 fp-8=scalar(id=5) fp-16=mmmmmmmm fp-24=mmmm???? fp-32=mmmm2 fp-40=mmmmscalar(id=2,smin=0,smax=umax=0xffffffff,var_off=(0x0; 0xffffffff))
; v &= 1ull; @ wm.bpf.c:48
95: (7b) *(u64 *)(r10 -8) = r1        ; R1_w=1 R10=fp0 fp-8_w=1
96: (bf) r2 = r10                     ; R2_w=fp0 R10=fp0
;  @ wm.bpf.c:0
97: (07) r2 += -32                    ; R2_w=fp-32
98: (bf) r3 = r10                     ; R3_w=fp0 R10=fp0
99: (07) r3 += -8                     ; R3_w=fp-8
; bpf_map_update_elem(&TAPE, &idx, &v, BPF_ANY); @ wm.bpf.c:49
100: (18) r1 = 0xffff0000ccc96000     ; R1_w=map_ptr(map=TAPE,ks=4,vs=8)
102: (b7) r4 = 0                      ; R4_w=0
103: (85) call bpf_map_update_elem#2
mark_precise: frame0: last_idx 103 first_idx 90 subseq_idx -1 
mark_precise: frame0: regs= stack=-32 before 102: (b7) r4 = 0
mark_precise: frame0: regs= stack=-32 before 100: (18) r1 = 0xffff0000ccc96000
mark_precise: frame0: regs= stack=-32 before 99: (07) r3 += -8
mark_precise: frame0: regs= stack=-32 before 98: (bf) r3 = r10
mark_precise: frame0: regs= stack=-32 before 97: (07) r2 += -32
mark_precise: frame0: regs= stack=-32 before 96: (bf) r2 = r10
mark_precise: frame0: regs= stack=-32 before 95: (7b) *(u64 *)(r10 -8) = r1
mark_precise: frame0: regs= stack=-32 before 93: (15) if r6 == 0x0 goto pc+1
mark_precise: frame0: regs= stack=-32 before 92: (b7) r1 = 1
mark_precise: frame0: regs= stack=-32 before 91: (63) *(u32 *)(r10 -32) = r1
mark_precise: frame0: regs=r1 stack= before 90: (b7) r1 = 2
104: safe

from 78 to 81: R0=0 R1=1 R6=scalar(id=3) R7=fp-32 R8=scalar(umin=1) R9=scalar(smin=smin32=0,smax=umax=smax32=umax32=1,var_off=(0x0; 0x1)) R10=fp0 fp-8=????1 fp-16=mmmmmmmm fp-24=mmmm???? fp-32=1 fp-40=mmmmscalar(id=2,smin=0,smax=umax=0xffffffff,var_off=(0x0; 0xffffffff))
81: R0=0 R1=1 R6=scalar(id=3) R7=fp-32 R8=scalar(umin=1) R9=scalar(smin=smin32=0,smax=umax=smax32=umax32=1,var_off=(0x0; 0x1)) R10=fp0 fp-8=????1 fp-16=mmmmmmmm fp-24=mmmm???? fp-32=1 fp-40=mmmmscalar(id=2,smin=0,smax=umax=0xffffffff,var_off=(0x0; 0xffffffff))
; __u64 v = (p ? *p : 0) + 1; @ wm.bpf.c:56
81: (7b) *(u64 *)(r10 -8) = r1        ; R1=1 R10=fp0 fp-8_w=1
82: (bf) r2 = r10                     ; R2_w=fp0 R10=fp0
83: (07) r2 += -12                    ; R2_w=fp-12
84: (bf) r3 = r10                     ; R3_w=fp0 R10=fp0
85: (07) r3 += -8                     ; R3_w=fp-8
; bpf_map_update_elem(&TAPE, &idx, &v, BPF_ANY); @ wm.bpf.c:57
86: (18) r1 = 0xffff0000ccc96000      ; R1_w=map_ptr(map=TAPE,ks=4,vs=8)
88: (b7) r4 = 0                       ; R4_w=0
89: (85) call bpf_map_update_elem#2
90: safe

from 69 to 90: safe
verification time 192 usec
stack depth 40
processed 114 insns (limit 1000000) max_states_per_insn 0 total_states 8 peak_states 8 mark_read 3
-- END PROG LOAD LOG --
libbpf: prog 'wm_fa': -- BEGIN PROG LOAD LOG --
func#0 @0
Live regs before insn:
      0: .......... (b7) r6 = 0
      1: ......6... (63) *(u32 *)(r10 -16) = r6
      2: ......6... (bf) r2 = r10
      3: ..2...6... (07) r2 += -16
      4: ..2...6... (18) r1 = 0xffff0000ccc96000
      6: .12...6... (85) call bpf_map_lookup_elem#1
      7: 0.....6... (b7) r1 = 0
      8: 01....6... (7b) *(u64 *)(r10 -48) = r1
      9: 0.....6... (15) if r0 == 0x0 goto pc+3
     10: 0.....6... (79) r1 = *(u64 *)(r0 +0)
     11: .1....6... (57) r1 &= 1
     12: .1....6... (7b) *(u64 *)(r10 -48) = r1
     13: ......6... (b7) r1 = 1
     14: .1....6... (63) *(u32 *)(r10 -16) = r1
     15: ......6... (bf) r2 = r10
     16: ..2...6... (07) r2 += -16
     17: ..2...6... (18) r1 = 0xffff0000ccc96000
     19: .12...6... (85) call bpf_map_lookup_elem#1
     20: 0.....6... (15) if r0 == 0x0 goto pc+2
     21: 0......... (79) r6 = *(u64 *)(r0 +0)
     22: ......6... (57) r6 &= 1
     23: ......6... (7b) *(u64 *)(r10 -72) = r6
     24: .......... (b7) r1 = 3
     25: .1........ (63) *(u32 *)(r10 -16) = r1
     26: .......... (bf) r2 = r10
     27: ..2....... (07) r2 += -16
     28: ..2....... (18) r1 = 0xffff0000ccc96000
     30: .12....... (85) call bpf_map_lookup_elem#1
     31: 0......... (b7) r1 = 0
     32: 01........ (b7) r2 = 0
     33: 012....... (15) if r0 == 0x0 goto pc+2
     34: 01........ (79) r2 = *(u64 *)(r0 +0)
     35: .12....... (57) r2 &= 1
     36: .12....... (7b) *(u64 *)(r10 -64) = r2
     37: .1........ (63) *(u32 *)(r10 -20) = r1
     38: .......... (b7) r9 = 1
     39: .........9 (63) *(u32 *)(r10 -24) = r9
     40: .........9 (7b) *(u64 *)(r10 -32) = r9
     41: .........9 (bf) r6 = r10
     42: ......6..9 (07) r6 += -20
     43: ......6..9 (18) r1 = 0xffff0000c8517000
     45: .1....6..9 (bf) r2 = r6
     46: .12...6..9 (85) call bpf_map_delete_elem#3
     47: ......6..9 (bf) r2 = r10
     48: ..2...6..9 (07) r2 += -24
     49: ..2...6..9 (18) r1 = 0xffff0000c8517000
     51: .12...6..9 (85) call bpf_map_delete_elem#3
     52: ......6..9 (b7) r1 = 2
     53: .1....6..9 (63) *(u32 *)(r10 -36) = r1
     54: ......6..9 (bf) r2 = r10
     55: ..2...6..9 (07) r2 += -36
     56: ..2...6..9 (18) r1 = 0xffff0000c8517000
     58: .12...6..9 (85) call bpf_map_delete_elem#3
     59: ......6..9 (bf) r7 = r10
     60: ......67.9 (07) r7 += -32
     61: ......67.9 (18) r1 = 0xffff0000c8517000
     63: .1....67.9 (bf) r2 = r6
     64: .12...67.9 (bf) r3 = r7
     65: .123..67.9 (b7) r4 = 1
     66: .1234.67.9 (85) call bpf_map_update_elem#2
     67: 0.....67.9 (bf) r8 = r0
     68: ......6789 (61) r1 = *(u32 *)(r10 -20)
     69: .1....6789 (61) r2 = *(u32 *)(r10 -24)
     70: .12...6789 (1f) r2 -= r1
     71: .12...6789 (79) r3 = *(u64 *)(r10 -48)
     72: .123..6789 (2f) r2 *= r3
     73: .12...6789 (0f) r2 += r1
     74: ..2...6789 (63) *(u32 *)(r10 -40) = r2
     75: ......6789 (bf) r2 = r10
     76: ..2...6789 (07) r2 += -40
     77: ..2...6789 (18) r1 = 0xffff0000c8517000
     79: .12...6789 (bf) r3 = r7
     80: .123..6789 (b7) r4 = 0
     81: .1234.6789 (85) call bpf_map_update_elem#2
     82: 0.....6789 (4f) r8 |= r0
     83: ......6789 (18) r1 = 0xffff0000c8517000
     85: .1....6789 (bf) r2 = r6
     86: .12....789 (bf) r3 = r7
     87: .123....89 (b7) r4 = 0
     88: .1234...89 (85) call bpf_map_update_elem#2
     89: 0.......89 (7b) *(u64 *)(r10 -56) = r0
     90: ........89 (15) if r8 == 0x0 goto pc+20
     91: .........9 (b7) r1 = 161
     92: .1.......9 (63) *(u32 *)(r10 -4) = r1
     93: .........9 (bf) r2 = r10
     94: ..2......9 (07) r2 += -4
     95: ..2......9 (18) r1 = 0xffff0000ccc96000
     97: .12......9 (85) call bpf_map_lookup_elem#1
     98: 0........9 (b7) r1 = 1
     99: 01.......9 (15) if r0 == 0x0 goto pc+2
    100: 0........9 (79) r1 = *(u64 *)(r0 +0)
    101: .1.......9 (07) r1 += 1
    102: .1.......9 (7b) *(u64 *)(r10 -16) = r1
    103: .........9 (bf) r2 = r10
    104: ..2......9 (07) r2 += -4
    105: ..2......9 (bf) r3 = r10
    106: ..23.....9 (07) r3 += -16
    107: ..23.....9 (18) r1 = 0xffff0000ccc96000
    109: .123.....9 (b7) r4 = 0
    110: .1234....9 (85) call bpf_map_update_elem#2
    111: .........9 (b7) r6 = 0
    112: ......6..9 (63) *(u32 *)(r10 -20) = r6
    113: ......6..9 (63) *(u32 *)(r10 -24) = r9
    114: ......6..9 (7b) *(u64 *)(r10 -32) = r9
    115: ......6... (bf) r7 = r10
    116: ......67.. (07) r7 += -20
    117: ......67.. (18) r1 = 0xffff0000c8514800
    119: .1....67.. (bf) r2 = r7
    120: .12...67.. (85) call bpf_map_delete_elem#3
    121: ......67.. (bf) r2 = r10
    122: ..2...67.. (07) r2 += -24
    123: ..2...67.. (18) r1 = 0xffff0000c8514800
    125: .12...67.. (85) call bpf_map_delete_elem#3
    126: ......67.. (b7) r1 = 2
    127: .1....67.. (63) *(u32 *)(r10 -36) = r1
    128: ......67.. (bf) r2 = r10
    129: ..2...67.. (07) r2 += -36
    130: ..2...67.. (18) r1 = 0xffff0000c8514800
    132: .12...67.. (85) call bpf_map_delete_elem#3
    133: ......67.. (bf) r8 = r10
    134: ......678. (07) r8 += -32
    135: ......678. (18) r1 = 0xffff0000c8514800
    137: .1....678. (bf) r2 = r7
    138: .12...678. (bf) r3 = r8
    139: .123..678. (b7) r4 = 1
    140: .1234.678. (85) call bpf_map_update_elem#2
    141: 0.....678. (bf) r9 = r0
    142: ......6789 (61) r1 = *(u32 *)(r10 -20)
    143: .1....6789 (61) r2 = *(u32 *)(r10 -24)
    144: .12...6789 (1f) r2 -= r1
    145: .12...6789 (79) r3 = *(u64 *)(r10 -48)
    146: .123..6789 (2f) r2 *= r3
    147: .12...6789 (0f) r2 += r1
    148: ..2...6789 (63) *(u32 *)(r10 -40) = r2
    149: ......6789 (bf) r2 = r10
    150: ..2...6789 (07) r2 += -40
    151: ..2...6789 (18) r1 = 0xffff0000c8514800
    153: .12...6789 (bf) r3 = r8
    154: .123..6789 (b7) r4 = 0
    155: .1234.6789 (85) call bpf_map_update_elem#2
    156: 0.....6789 (4f) r9 |= r0
    157: ......6789 (18) r1 = 0xffff0000c8514800
    159: .1....6789 (bf) r2 = r7
    160: .12...6.89 (bf) r3 = r8
    161: .123..6..9 (b7) r4 = 0
    162: .1234.6..9 (85) call bpf_map_update_elem#2
    163: 0.....6..9 (7b) *(u64 *)(r10 -48) = r0
    164: ......6..9 (15) if r9 == 0x0 goto pc+20
    165: ......6... (b7) r1 = 161
    166: .1....6... (63) *(u32 *)(r10 -4) = r1
    167: ......6... (bf) r2 = r10
    168: ..2...6... (07) r2 += -4
    169: ..2...6... (18) r1 = 0xffff0000ccc96000
    171: .12...6... (85) call bpf_map_lookup_elem#1
    172: 0.....6... (b7) r1 = 1
    173: 01....6... (15) if r0 == 0x0 goto pc+2
    174: 0.....6... (79) r1 = *(u64 *)(r0 +0)
    175: .1....6... (07) r1 += 1
    176: .1....6... (7b) *(u64 *)(r10 -16) = r1
    177: ......6... (bf) r2 = r10
    178: ..2...6... (07) r2 += -4
    179: ..2...6... (bf) r3 = r10
    180: ..23..6... (07) r3 += -16
    181: ..23..6... (18) r1 = 0xffff0000ccc96000
    183: .123..6... (b7) r4 = 0
    184: .1234.6... (85) call bpf_map_update_elem#2
    185: ......6... (63) *(u32 *)(r10 -20) = r6
    186: .......... (b7) r1 = 1
    187: .1........ (63) *(u32 *)(r10 -24) = r1
    188: .1........ (7b) *(u64 *)(r10 -32) = r1
    189: .......... (bf) r8 = r10
    190: ........8. (07) r8 += -20
    191: ........8. (18) r1 = 0xffff0000c8516c00
    193: .1......8. (bf) r2 = r8
    194: .12.....8. (85) call bpf_map_delete_elem#3
    195: ........8. (bf) r7 = r10
    196: .......78. (07) r7 += -24
    197: .......78. (18) r1 = 0xffff0000c8516c00
    199: .1.....78. (bf) r2 = r7
    200: .12....78. (85) call bpf_map_delete_elem#3
    201: .......78. (b7) r1 = 2
    202: .1.....78. (63) *(u32 *)(r10 -36) = r1
    203: .......78. (bf) r2 = r10
    204: ..2....78. (07) r2 += -36
    205: ..2....78. (18) r1 = 0xffff0000c8516c00
    207: .12....78. (85) call bpf_map_delete_elem#3
    208: .......78. (bf) r6 = r10
    209: ......678. (07) r6 += -32
    210: ......678. (18) r1 = 0xffff0000c8516c00
    212: .1....678. (bf) r2 = r8
    213: .12...678. (bf) r3 = r6
    214: .123..678. (b7) r4 = 1
    215: .1234.678. (85) call bpf_map_update_elem#2
    216: 0.....678. (bf) r9 = r0
    217: ......6789 (bf) r1 = r8
    218: .1....6789 (79) r2 = *(u64 *)(r10 -72)
    219: .12...6789 (15) if r2 == 0x0 goto pc+1
    220: ......6789 (bf) r1 = r7
    221: .1....6.89 (61) r1 = *(u32 *)(r1 +0)
    222: .1....6.89 (63) *(u32 *)(r10 -40) = r1
    223: ......6.89 (bf) r2 = r10
    224: ..2...6.89 (07) r2 += -40
    225: ..2...6.89 (18) r1 = 0xffff0000c8516c00
    227: .12...6.89 (bf) r3 = r6
    228: .123..6.89 (b7) r4 = 0
    229: .1234.6.89 (85) call bpf_map_update_elem#2
    230: 0.....6.89 (bf) r7 = r0
    231: ......6789 (18) r1 = 0xffff0000c8516c00
    233: .1....6789 (bf) r2 = r8
    234: .12...67.9 (bf) r3 = r6
    235: .123...7.9 (b7) r4 = 0
    236: .1234..7.9 (85) call bpf_map_update_elem#2
    237: .......7.9 (4f) r9 |= r7
    238: .........9 (15) if r9 == 0x0 goto pc+20
    239: .......... (b7) r1 = 161
    240: .1........ (63) *(u32 *)(r10 -4) = r1
    241: .......... (bf) r2 = r10
    242: ..2....... (07) r2 += -4
    243: ..2....... (18) r1 = 0xffff0000ccc96000
    245: .12....... (85) call bpf_map_lookup_elem#1
    246: 0......... (b7) r1 = 1
    247: 01........ (15) if r0 == 0x0 goto pc+2
    248: 0......... (79) r1 = *(u64 *)(r0 +0)
    249: .1........ (07) r1 += 1
    250: .1........ (7b) *(u64 *)(r10 -16) = r1
    251: .......... (bf) r2 = r10
    252: ..2....... (07) r2 += -4
    253: ..2....... (bf) r3 = r10
    254: ..23...... (07) r3 += -16
    255: ..23...... (18) r1 = 0xffff0000ccc96000
    257: .123...... (b7) r4 = 0
    258: .1234..... (85) call bpf_map_update_elem#2
    259: .......... (b7) r1 = 0
    260: .1........ (63) *(u32 *)(r10 -20) = r1
    261: .......... (b7) r1 = 1
    262: .1........ (63) *(u32 *)(r10 -24) = r1
    263: .1........ (7b) *(u64 *)(r10 -32) = r1
    264: .......... (bf) r7 = r10
    265: .......7.. (07) r7 += -20
    266: .......7.. (18) r1 = 0xffff0000c8517c00
    268: .1.....7.. (bf) r2 = r7
    269: .12....7.. (85) call bpf_map_delete_elem#3
    270: .......7.. (bf) r8 = r10
    271: .......78. (07) r8 += -24
    272: .......78. (18) r1 = 0xffff0000c8517c00
    274: .1.....78. (bf) r2 = r8
    275: .12....78. (85) call bpf_map_delete_elem#3
    276: .......78. (b7) r1 = 2
    277: .1.....78. (63) *(u32 *)(r10 -36) = r1
    278: .......78. (bf) r2 = r10
    279: ..2....78. (07) r2 += -36
    280: ..2....78. (18) r1 = 0xffff0000c8517c00
    282: .12....78. (85) call bpf_map_delete_elem#3
    283: .......78. (bf) r9 = r10
    284: .......789 (07) r9 += -32
    285: .......789 (18) r1 = 0xffff0000c8517c00
    287: .1.....789 (bf) r2 = r7
    288: .12....789 (bf) r3 = r9
    289: .123...789 (b7) r4 = 1
    290: .1234..789 (85) call bpf_map_update_elem#2
    291: 0......789 (bf) r6 = r0
    292: ......6789 (79) r1 = *(u64 *)(r10 -48)
    293: .1....6789 (15) if r1 == 0x0 goto pc+1
    294: ......67.9 (bf) r8 = r7
    295: ......6789 (61) r1 = *(u32 *)(r8 +0)
    296: .1....67.9 (63) *(u32 *)(r10 -40) = r1
    297: ......67.9 (bf) r2 = r10
    298: ..2...67.9 (07) r2 += -40
    299: ..2...67.9 (18) r1 = 0xffff0000c8517c00
    301: .12...67.9 (bf) r3 = r9
    302: .123..67.9 (b7) r4 = 0
    303: .1234.67.9 (85) call bpf_map_update_elem#2
    304: 0.....67.9 (4f) r6 |= r0
    305: ......67.9 (18) r1 = 0xffff0000c8517c00
    307: .1....67.9 (bf) r2 = r7
    308: .12...6..9 (bf) r3 = r9
    309: .123..6... (b7) r4 = 0
    310: .1234.6... (85) call bpf_map_update_elem#2
    311: 0.....6... (7b) *(u64 *)(r10 -48) = r0
    312: ......6... (15) if r6 == 0x0 goto pc+20
    313: .......... (b7) r1 = 161
    314: .1........ (63) *(u32 *)(r10 -4) = r1
    315: .......... (bf) r2 = r10
    316: ..2....... (07) r2 += -4
    317: ..2....... (18) r1 = 0xffff0000ccc96000
    319: .12....... (85) call bpf_map_lookup_elem#1
    320: 0......... (b7) r1 = 1
    321: 01........ (15) if r0 == 0x0 goto pc+2
    322: 0......... (79) r1 = *(u64 *)(r0 +0)
    323: .1........ (07) r1 += 1
    324: .1........ (7b) *(u64 *)(r10 -16) = r1
    325: .......... (bf) r2 = r10
    326: ..2....... (07) r2 += -4
    327: ..2....... (bf) r3 = r10
    328: ..23...... (07) r3 += -16
    329: ..23...... (18) r1 = 0xffff0000ccc96000
    331: .123...... (b7) r4 = 0
    332: .1234..... (85) call bpf_map_update_elem#2
    333: .......... (b7) r1 = 0
    334: .1........ (63) *(u32 *)(r10 -20) = r1
    335: .......... (b7) r1 = 1
    336: .1........ (63) *(u32 *)(r10 -24) = r1
    337: .1........ (7b) *(u64 *)(r10 -32) = r1
    338: .......... (bf) r7 = r10
    339: .......7.. (07) r7 += -20
    340: .......7.. (18) r1 = 0xffff0000c5ddd800
    342: .1.....7.. (bf) r2 = r7
    343: .12....7.. (85) call bpf_map_delete_elem#3
    344: .......7.. (bf) r8 = r10
    345: .......78. (07) r8 += -24
    346: .......78. (18) r1 = 0xffff0000c5ddd800
    348: .1.....78. (bf) r2 = r8
    349: .12....78. (85) call bpf_map_delete_elem#3
    350: .......78. (b7) r1 = 2
    351: .1.....78. (63) *(u32 *)(r10 -36) = r1
    352: .......78. (bf) r2 = r10
    353: ..2....78. (07) r2 += -36
    354: ..2....78. (18) r1 = 0xffff0000c5ddd800
    356: .12....78. (85) call bpf_map_delete_elem#3
    357: .......78. (bf) r6 = r10
    358: ......678. (07) r6 += -32
    359: ......678. (18) r1 = 0xffff0000c5ddd800
    361: .1....678. (bf) r2 = r7
    362: .12...678. (bf) r3 = r6
    363: .123..678. (b7) r4 = 1
    364: .1234.678. (85) call bpf_map_update_elem#2
    365: 0.....678. (bf) r9 = r0
    366: ......6789 (79) r1 = *(u64 *)(r10 -48)
    367: .1....6789 (15) if r1 == 0x0 goto pc+1
    368: ......67.9 (bf) r8 = r7
    369: ......6789 (61) r1 = *(u32 *)(r8 +0)
    370: .1....67.9 (63) *(u32 *)(r10 -40) = r1
    371: ......67.9 (bf) r2 = r10
    372: ..2...67.9 (07) r2 += -40
    373: ..2...67.9 (18) r1 = 0xffff0000c5ddd800
    375: .12...67.9 (bf) r3 = r6
    376: .123..67.9 (b7) r4 = 0
    377: .1234.67.9 (85) call bpf_map_update_elem#2
    378: 0.....67.9 (bf) r8 = r0
    379: ......6789 (18) r1 = 0xffff0000c5ddd800
    381: .1....6789 (bf) r2 = r7
    382: .12...6.89 (bf) r3 = r6
    383: .123....89 (b7) r4 = 0
    384: .1234...89 (85) call bpf_map_update_elem#2
    385: ........89 (4f) r9 |= r8
    386: .........9 (15) if r9 == 0x0 goto pc+20
    387: .......... (b7) r1 = 161
    388: .1........ (63) *(u32 *)(r10 -4) = r1
    389: .......... (bf) r2 = r10
    390: ..2....... (07) r2 += -4
    391: ..2....... (18) r1 = 0xffff0000ccc96000
    393: .12....... (85) call bpf_map_lookup_elem#1
    394: 0......... (b7) r1 = 1
    395: 01........ (15) if r0 == 0x0 goto pc+2
    396: 0......... (79) r1 = *(u64 *)(r0 +0)
    397: .1........ (07) r1 += 1
    398: .1........ (7b) *(u64 *)(r10 -16) = r1
    399: .......... (bf) r2 = r10
    400: ..2....... (07) r2 += -4
    401: ..2....... (bf) r3 = r10
    402: ..23...... (07) r3 += -16
    403: ..23...... (18) r1 = 0xffff0000ccc96000
    405: .123...... (b7) r4 = 0
    406: .1234..... (85) call bpf_map_update_elem#2
    407: .......... (b7) r1 = 0
    408: .1........ (63) *(u32 *)(r10 -20) = r1
    409: .......... (b7) r1 = 1
    410: .1........ (63) *(u32 *)(r10 -24) = r1
    411: .1........ (7b) *(u64 *)(r10 -32) = r1
    412: .......... (bf) r8 = r10
    413: ........8. (07) r8 += -20
    414: ........8. (18) r1 = 0xffff0000c5ddd000
    416: .1......8. (bf) r2 = r8
    417: .12.....8. (85) call bpf_map_delete_elem#3
    418: ........8. (bf) r7 = r10
    419: .......78. (07) r7 += -24
    420: .......78. (18) r1 = 0xffff0000c5ddd000
    422: .1.....78. (bf) r2 = r7
    423: .12....78. (85) call bpf_map_delete_elem#3
    424: .......78. (b7) r1 = 2
    425: .1.....78. (63) *(u32 *)(r10 -36) = r1
    426: .......78. (bf) r2 = r10
    427: ..2....78. (07) r2 += -36
    428: ..2....78. (18) r1 = 0xffff0000c5ddd000
    430: .12....78. (85) call bpf_map_delete_elem#3
    431: .......78. (bf) r6 = r10
    432: ......678. (07) r6 += -32
    433: ......678. (18) r1 = 0xffff0000c5ddd000
    435: .1....678. (bf) r2 = r8
    436: .12...678. (bf) r3 = r6
    437: .123..678. (b7) r4 = 1
    438: .1234.678. (85) call bpf_map_update_elem#2
    439: 0.....678. (bf) r9 = r0
    440: ......6789 (79) r1 = *(u64 *)(r10 -48)
    441: .1....6789 (15) if r1 == 0x0 goto pc+1
    442: ......6.89 (bf) r7 = r8
    443: ......6789 (61) r1 = *(u32 *)(r7 +0)
    444: .1....6.89 (63) *(u32 *)(r10 -40) = r1
    445: ......6.89 (bf) r2 = r10
    446: ..2...6.89 (07) r2 += -40
    447: ..2...6.89 (18) r1 = 0xffff0000c5ddd000
    449: .12...6.89 (bf) r3 = r6
    450: .123..6.89 (b7) r4 = 0
    451: .1234.6.89 (85) call bpf_map_update_elem#2
    452: 0.....6.89 (4f) r9 |= r0
    453: ......6.89 (18) r1 = 0xffff0000c5ddd000
    455: .1....6.89 (bf) r2 = r8
    456: .12...6..9 (bf) r3 = r6
    457: .123.....9 (b7) r4 = 0
    458: .1234....9 (85) call bpf_map_update_elem#2
    459: 0........9 (7b) *(u64 *)(r10 -48) = r0
    460: .........9 (15) if r9 == 0x0 goto pc+20
    461: .......... (b7) r1 = 161
    462: .1........ (63) *(u32 *)(r10 -4) = r1
    463: .......... (bf) r2 = r10
    464: ..2....... (07) r2 += -4
    465: ..2....... (18) r1 = 0xffff0000ccc96000
    467: .12....... (85) call bpf_map_lookup_elem#1
    468: 0......... (b7) r1 = 1
    469: 01........ (15) if r0 == 0x0 goto pc+2
    470: 0......... (79) r1 = *(u64 *)(r0 +0)
    471: .1........ (07) r1 += 1
    472: .1........ (7b) *(u64 *)(r10 -16) = r1
    473: .......... (bf) r2 = r10
    474: ..2....... (07) r2 += -4
    475: ..2....... (bf) r3 = r10
    476: ..23...... (07) r3 += -16
    477: ..23...... (18) r1 = 0xffff0000ccc96000
    479: .123...... (b7) r4 = 0
    480: .1234..... (85) call bpf_map_update_elem#2
    481: .......... (b7) r1 = 0
    482: .1........ (63) *(u32 *)(r10 -20) = r1
    483: .......... (b7) r1 = 1
    484: .1........ (63) *(u32 *)(r10 -24) = r1
    485: .1........ (7b) *(u64 *)(r10 -32) = r1
    486: .......... (bf) r8 = r10
    487: ........8. (07) r8 += -20
    488: ........8. (18) r1 = 0xffff0000c5ddf400
    490: .1......8. (bf) r2 = r8
    491: .12.....8. (85) call bpf_map_delete_elem#3
    492: ........8. (bf) r7 = r10
    493: .......78. (07) r7 += -24
    494: .......78. (18) r1 = 0xffff0000c5ddf400
    496: .1.....78. (bf) r2 = r7
    497: .12....78. (85) call bpf_map_delete_elem#3
    498: .......78. (b7) r1 = 2
    499: .1.....78. (63) *(u32 *)(r10 -36) = r1
    500: .......78. (bf) r2 = r10
    501: ..2....78. (07) r2 += -36
    502: ..2....78. (18) r1 = 0xffff0000c5ddf400
    504: .12....78. (85) call bpf_map_delete_elem#3
    505: .......78. (bf) r6 = r10
    506: ......678. (07) r6 += -32
    507: ......678. (18) r1 = 0xffff0000c5ddf400
    509: .1....678. (bf) r2 = r8
    510: .12...678. (bf) r3 = r6
    511: .123..678. (b7) r4 = 1
    512: .1234.678. (85) call bpf_map_update_elem#2
    513: 0.....678. (bf) r9 = r0
    514: ......6789 (bf) r1 = r8
    515: .1....6789 (79) r2 = *(u64 *)(r10 -64)
    516: .12...6789 (15) if r2 == 0x0 goto pc+1
    517: ......6789 (bf) r1 = r7
    518: .1....6.89 (61) r1 = *(u32 *)(r1 +0)
    519: .1....6.89 (63) *(u32 *)(r10 -40) = r1
    520: ......6.89 (bf) r2 = r10
    521: ..2...6.89 (07) r2 += -40
    522: ..2...6.89 (18) r1 = 0xffff0000c5ddf400
    524: .12...6.89 (bf) r3 = r6
    525: .123..6.89 (b7) r4 = 0
    526: .1234.6.89 (85) call bpf_map_update_elem#2
    527: 0.....6.89 (bf) r7 = r0
    528: ......6789 (18) r1 = 0xffff0000c5ddf400
    530: .1....6789 (bf) r2 = r8
    531: .12...67.9 (bf) r3 = r6
    532: .123...7.9 (b7) r4 = 0
    533: .1234..7.9 (85) call bpf_map_update_elem#2
    534: .......7.9 (4f) r9 |= r7
    535: .........9 (15) if r9 == 0x0 goto pc+20
    536: .......... (b7) r1 = 161
    537: .1........ (63) *(u32 *)(r10 -4) = r1
    538: .......... (bf) r2 = r10
    539: ..2....... (07) r2 += -4
    540: ..2....... (18) r1 = 0xffff0000ccc96000
    542: .12....... (85) call bpf_map_lookup_elem#1
    543: 0......... (b7) r1 = 1
    544: 01........ (15) if r0 == 0x0 goto pc+2
    545: 0......... (79) r1 = *(u64 *)(r0 +0)
    546: .1........ (07) r1 += 1
    547: .1........ (7b) *(u64 *)(r10 -16) = r1
    548: .......... (bf) r2 = r10
    549: ..2....... (07) r2 += -4
    550: ..2....... (bf) r3 = r10
    551: ..23...... (07) r3 += -16
    552: ..23...... (18) r1 = 0xffff0000ccc96000
    554: .123...... (b7) r4 = 0
    555: .1234..... (85) call bpf_map_update_elem#2
    556: .......... (b7) r1 = 0
    557: .1........ (63) *(u32 *)(r10 -20) = r1
    558: .......... (b7) r1 = 1
    559: .1........ (63) *(u32 *)(r10 -24) = r1
    560: .1........ (7b) *(u64 *)(r10 -32) = r1
    561: .......... (bf) r7 = r10
    562: .......7.. (07) r7 += -20
    563: .......7.. (18) r1 = 0xffff0000c40e1000
    565: .1.....7.. (bf) r2 = r7
    566: .12....7.. (85) call bpf_map_delete_elem#3
    567: .......7.. (bf) r8 = r10
    568: .......78. (07) r8 += -24
    569: .......78. (18) r1 = 0xffff0000c40e1000
    571: .1.....78. (bf) r2 = r8
    572: .12....78. (85) call bpf_map_delete_elem#3
    573: .......78. (b7) r1 = 2
    574: .1.....78. (63) *(u32 *)(r10 -36) = r1
    575: .......78. (bf) r2 = r10
    576: ..2....78. (07) r2 += -36
    577: ..2....78. (18) r1 = 0xffff0000c40e1000
    579: .12....78. (85) call bpf_map_delete_elem#3
    580: .......78. (bf) r9 = r10
    581: .......789 (07) r9 += -32
    582: .......789 (18) r1 = 0xffff0000c40e1000
    584: .1.....789 (bf) r2 = r7
    585: .12....789 (bf) r3 = r9
    586: .123...789 (b7) r4 = 1
    587: .1234..789 (85) call bpf_map_update_elem#2
    588: 0......789 (bf) r6 = r0
    589: ......6789 (79) r1 = *(u64 *)(r10 -48)
    590: .1....6789 (15) if r1 == 0x0 goto pc+1
    591: ......67.9 (bf) r8 = r7
    592: ......6789 (61) r1 = *(u32 *)(r8 +0)
    593: .1....67.9 (63) *(u32 *)(r10 -40) = r1
    594: ......67.9 (bf) r2 = r10
    595: ..2...67.9 (07) r2 += -40
    596: ..2...67.9 (18) r1 = 0xffff0000c40e1000
    598: .12...67.9 (bf) r3 = r9
    599: .123..67.9 (b7) r4 = 0
    600: .1234.67.9 (85) call bpf_map_update_elem#2
    601: 0.....67.9 (4f) r6 |= r0
    602: ......67.9 (18) r1 = 0xffff0000c40e1000
    604: .1....67.9 (bf) r2 = r7
    605: .12...6..9 (bf) r3 = r9
    606: .123..6... (b7) r4 = 0
    607: .1234.6... (85) call bpf_map_update_elem#2
    608: 0.....6... (7b) *(u64 *)(r10 -48) = r0
    609: ......6... (15) if r6 == 0x0 goto pc+20
    610: .......... (b7) r1 = 161
    611: .1........ (63) *(u32 *)(r10 -4) = r1
    612: .......... (bf) r2 = r10
    613: ..2....... (07) r2 += -4
    614: ..2....... (18) r1 = 0xffff0000ccc96000
    616: .12....... (85) call bpf_map_lookup_elem#1
    617: 0......... (b7) r1 = 1
    618: 01........ (15) if r0 == 0x0 goto pc+2
    619: 0......... (79) r1 = *(u64 *)(r0 +0)
    620: .1........ (07) r1 += 1
    621: .1........ (7b) *(u64 *)(r10 -16) = r1
    622: .......... (bf) r2 = r10
    623: ..2....... (07) r2 += -4
    624: ..2....... (bf) r3 = r10
    625: ..23...... (07) r3 += -16
    626: ..23...... (18) r1 = 0xffff0000ccc96000
    628: .123...... (b7) r4 = 0
    629: .1234..... (85) call bpf_map_update_elem#2
    630: .......... (b7) r1 = 0
    631: .1........ (63) *(u32 *)(r10 -20) = r1
    632: .......... (b7) r1 = 1
    633: .1........ (63) *(u32 *)(r10 -24) = r1
    634: .1........ (7b) *(u64 *)(r10 -32) = r1
    635: .......... (bf) r8 = r10
    636: ........8. (07) r8 += -20
    637: ........8. (18) r1 = 0xffff0000c40e0000
    639: .1......8. (bf) r2 = r8
    640: .12.....8. (85) call bpf_map_delete_elem#3
    641: ........8. (bf) r6 = r10
    642: ......6.8. (07) r6 += -24
    643: ......6.8. (18) r1 = 0xffff0000c40e0000
    645: .1....6.8. (bf) r2 = r6
    646: .12...6.8. (85) call bpf_map_delete_elem#3
    647: ......6.8. (b7) r1 = 2
    648: .1....6.8. (63) *(u32 *)(r10 -36) = r1
    649: ......6.8. (bf) r2 = r10
    650: ..2...6.8. (07) r2 += -36
    651: ..2...6.8. (18) r1 = 0xffff0000c40e0000
    653: .12...6.8. (85) call bpf_map_delete_elem#3
    654: ......6.8. (bf) r9 = r10
    655: ......6.89 (07) r9 += -32
    656: ......6.89 (18) r1 = 0xffff0000c40e0000
    658: .1....6.89 (bf) r2 = r8
    659: .12...6.89 (bf) r3 = r9
    660: .123..6.89 (b7) r4 = 1
    661: .1234.6.89 (85) call bpf_map_update_elem#2
    662: 0.....6.89 (bf) r7 = r0
    663: ......6789 (79) r1 = *(u64 *)(r10 -56)
    664: .1....6789 (15) if r1 == 0x0 goto pc+1
    665: .......789 (bf) r6 = r8
    666: ......6789 (61) r1 = *(u32 *)(r6 +0)
    667: .1.....789 (63) *(u32 *)(r10 -40) = r1
    668: .......789 (bf) r2 = r10
    669: ..2....789 (07) r2 += -40
    670: ..2....789 (18) r1 = 0xffff0000c40e0000
    672: .12....789 (bf) r3 = r9
    673: .123...789 (b7) r4 = 0
    674: .1234..789 (85) call bpf_map_update_elem#2
    675: 0......789 (4f) r7 |= r0
    676: .......789 (18) r1 = 0xffff0000c40e0000
    678: .1.....789 (bf) r2 = r8
    679: .12....7.9 (bf) r3 = r9
    680: .123...7.. (b7) r4 = 0
    681: .1234..7.. (85) call bpf_map_update_elem#2
    682: 0......7.. (bf) r6 = r0
    683: ......67.. (15) if r7 == 0x0 goto pc+20
    684: ......6... (b7) r1 = 161
    685: .1....6... (63) *(u32 *)(r10 -4) = r1
    686: ......6... (bf) r2 = r10
    687: ..2...6... (07) r2 += -4
    688: ..2...6... (18) r1 = 0xffff0000ccc96000
    690: .12...6... (85) call bpf_map_lookup_elem#1
    691: 0.....6... (b7) r1 = 1
    692: 01....6... (15) if r0 == 0x0 goto pc+2
    693: 0.....6... (79) r1 = *(u64 *)(r0 +0)
    694: .1....6... (07) r1 += 1
    695: .1....6... (7b) *(u64 *)(r10 -16) = r1
    696: ......6... (bf) r2 = r10
    697: ..2...6... (07) r2 += -4
    698: ..2...6... (bf) r3 = r10
    699: ..23..6... (07) r3 += -16
    700: ..23..6... (18) r1 = 0xffff0000ccc96000
    702: .123..6... (b7) r4 = 0
    703: .1234.6... (85) call bpf_map_update_elem#2
    704: ......6... (b7) r1 = 4
    705: .1....6... (63) *(u32 *)(r10 -32) = r1
    706: ......6... (b7) r7 = 1
    707: ......67.. (b7) r1 = 1
    708: .1....67.. (79) r2 = *(u64 *)(r10 -48)
    709: .12...67.. (15) if r2 == 0x0 goto pc+1
    710: ......67.. (b7) r1 = 0
    711: .1....67.. (7b) *(u64 *)(r10 -16) = r1
    712: ......67.. (bf) r2 = r10
    713: ..2...67.. (07) r2 += -32
    714: ..2...67.. (bf) r3 = r10
    715: ..23..67.. (07) r3 += -16
    716: ..23..67.. (18) r1 = 0xffff0000ccc96000
    718: .123..67.. (b7) r4 = 0
    719: .1234.67.. (85) call bpf_map_update_elem#2
    720: ......67.. (15) if r6 == 0x0 goto pc+1
    721: .......... (b7) r7 = 0
    722: .......7.. (b7) r1 = 5
    723: .1.....7.. (63) *(u32 *)(r10 -32) = r1
    724: .......7.. (7b) *(u64 *)(r10 -16) = r7
    725: .......... (bf) r2 = r10
    726: ..2....... (07) r2 += -32
    727: ..2....... (bf) r3 = r10
    728: ..23...... (07) r3 += -16
    729: ..23...... (18) r1 = 0xffff0000ccc96000
    731: .123...... (b7) r4 = 0
    732: .1234..... (85) call bpf_map_update_elem#2
    733: .......... (b7) r0 = 0
    734: 0......... (95) exit
arg#0 reference type('UNKNOWN ') size cannot be determined: -22
0: R1=ctx() R10=fp0
; int wm_fa(void *ctx) @ wm.bpf.c:142
0: (b7) r6 = 0                        ; R6_w=0
1: (63) *(u32 *)(r10 -16) = r6        ; R6_w=0 R10=fp0 fp-16=????0
2: (bf) r2 = r10                      ; R2_w=fp0 R10=fp0
;  @ wm.bpf.c:0
3: (07) r2 += -16                     ; R2_w=fp-16
; __u64 *p = bpf_map_lookup_elem(&TAPE, &idx); @ wm.bpf.c:42
4: (18) r1 = 0xffff0000ccc96000       ; R1_w=map_ptr(map=TAPE,ks=4,vs=8)
6: (85) call bpf_map_lookup_elem#1
mark_precise: frame0: last_idx 6 first_idx 0 subseq_idx -1 
mark_precise: frame0: regs= stack=-16 before 4: (18) r1 = 0xffff0000ccc96000
mark_precise: frame0: regs= stack=-16 before 3: (07) r2 += -16
mark_precise: frame0: regs= stack=-16 before 2: (bf) r2 = r10
mark_precise: frame0: regs= stack=-16 before 1: (63) *(u32 *)(r10 -16) = r6
mark_precise: frame0: regs=r6 stack= before 0: (b7) r6 = 0
7: R0_w=map_value(map=TAPE,ks=4,vs=8)
7: (b7) r1 = 0                        ; R1_w=0
; return p ? (*p & 1ull) : 0; @ wm.bpf.c:43
8: (7b) *(u64 *)(r10 -48) = r1        ; R1_w=0 R10=fp0 fp-48_w=0
9: (15) if r0 == 0x0 goto pc+3        ; R0_w=map_value(map=TAPE,ks=4,vs=8)
10: (79) r1 = *(u64 *)(r0 +0)         ; R0_w=map_value(map=TAPE,ks=4,vs=8) R1_w=scalar()
11: (57) r1 &= 1                      ; R1_w=scalar(smin=smin32=0,smax=umax=smax32=umax32=1,var_off=(0x0; 0x1))
12: (7b) *(u64 *)(r10 -48) = r1       ; R1=scalar(id=1,smin=smin32=0,smax=umax=smax32=umax32=1,var_off=(0x0; 0x1)) R10=fp0 fp-48=scalar(id=1,smin=smin32=0,smax=umax=smax32=umax32=1,var_off=(0x0; 0x1))
13: (b7) r1 = 1                       ; R1_w=1
14: (63) *(u32 *)(r10 -16) = r1       ; R1_w=1 R10=fp0 fp-16=????1
15: (bf) r2 = r10                     ; R2_w=fp0 R10=fp0
;  @ wm.bpf.c:0
16: (07) r2 += -16                    ; R2_w=fp-16
; __u64 *p = bpf_map_lookup_elem(&TAPE, &idx); @ wm.bpf.c:42
17: (18) r1 = 0xffff0000ccc96000      ; R1_w=map_ptr(map=TAPE,ks=4,vs=8)
19: (85) call bpf_map_lookup_elem#1
mark_precise: frame0: last_idx 19 first_idx 13 subseq_idx -1 
mark_precise: frame0: regs= stack=-16 before 17: (18) r1 = 0xffff0000ccc96000
mark_precise: frame0: regs= stack=-16 before 16: (07) r2 += -16
mark_precise: frame0: regs= stack=-16 before 15: (bf) r2 = r10
mark_precise: frame0: regs= stack=-16 before 14: (63) *(u32 *)(r10 -16) = r1
mark_precise: frame0: regs=r1 stack= before 13: (b7) r1 = 1
20: R0_w=map_value(map=TAPE,ks=4,vs=8)
; return p ? (*p & 1ull) : 0; @ wm.bpf.c:43
20: (15) if r0 == 0x0 goto pc+2       ; R0_w=map_value(map=TAPE,ks=4,vs=8)
21: (79) r6 = *(u64 *)(r0 +0)         ; R0_w=map_value(map=TAPE,ks=4,vs=8) R6_w=scalar()
22: (57) r6 &= 1                      ; R6=scalar(smin=smin32=0,smax=umax=smax32=umax32=1,var_off=(0x0; 0x1))
23: (7b) *(u64 *)(r10 -72) = r6       ; R6=scalar(id=2,smin=smin32=0,smax=umax=smax32=umax32=1,var_off=(0x0; 0x1)) R10=fp0 fp-72_w=scalar(id=2,smin=smin32=0,smax=umax=smax32=umax32=1,var_off=(0x0; 0x1))
24: (b7) r1 = 3                       ; R1_w=3
25: (63) *(u32 *)(r10 -16) = r1       ; R1_w=3 R10=fp0 fp-16=????3
26: (bf) r2 = r10                     ; R2_w=fp0 R10=fp0
;  @ wm.bpf.c:0
27: (07) r2 += -16                    ; R2_w=fp-16
; __u64 *p = bpf_map_lookup_elem(&TAPE, &idx); @ wm.bpf.c:42
28: (18) r1 = 0xffff0000ccc96000      ; R1_w=map_ptr(map=TAPE,ks=4,vs=8)
30: (85) call bpf_map_lookup_elem#1
mark_precise: frame0: last_idx 30 first_idx 23 subseq_idx -1 
mark_precise: frame0: regs= stack=-16 before 28: (18) r1 = 0xffff0000ccc96000
mark_precise: frame0: regs= stack=-16 before 27: (07) r2 += -16
mark_precise: frame0: regs= stack=-16 before 26: (bf) r2 = r10
mark_precise: frame0: regs= stack=-16 before 25: (63) *(u32 *)(r10 -16) = r1
mark_precise: frame0: regs=r1 stack= before 24: (b7) r1 = 3
31: R0_w=map_value(map=TAPE,ks=4,vs=8)
31: (b7) r1 = 0                       ; R1_w=0
32: (b7) r2 = 0                       ; R2_w=0
; return p ? (*p & 1ull) : 0; @ wm.bpf.c:43
33: (15) if r0 == 0x0 goto pc+2       ; R0_w=map_value(map=TAPE,ks=4,vs=8)
34: (79) r2 = *(u64 *)(r0 +0)         ; R0_w=map_value(map=TAPE,ks=4,vs=8) R2_w=scalar()
35: (57) r2 &= 1                      ; R2=scalar(smin=smin32=0,smax=umax=smax32=umax32=1,var_off=(0x0; 0x1))
36: (7b) *(u64 *)(r10 -64) = r2       ; R2=scalar(id=3,smin=smin32=0,smax=umax=smax32=umax32=1,var_off=(0x0; 0x1)) R10=fp0 fp-64_w=scalar(id=3,smin=smin32=0,smax=umax=smax32=umax32=1,var_off=(0x0; 0x1))
; __u64 d   = NAND_GATE(G0, a, b); @ wm.bpf.c:130
37: (63) *(u32 *)(r10 -20) = r1
mark_precise: frame0: last_idx 37 first_idx 36 subseq_idx -1 
mark_precise: frame0: regs=r1 stack= before 36: (7b) *(u64 *)(r10 -64) = r2
mark_precise: frame0: parent state regs=r1 stack=:  R0_w=map_value(map=TAPE,ks=4,vs=8) R1_rw=P0 R2_rw=scalar(smin=smin32=0,smax=umax=smax32=umax32=1,var_off=(0x0; 0x1)) R6=scalar(id=2,smin=smin32=0,smax=umax=smax32=umax32=1,var_off=(0x0; 0x1)) R10=fp0 fp-16=????3 fp-48=scalar(id=1,smin=smin32=0,smax=umax=smax32=umax32=1,var_off=(0x0; 0x1)) fp-72_w=scalar(id=2,smin=smin32=0,smax=umax=smax32=umax32=1,var_off=(0x0; 0x1))
mark_precise: frame0: last_idx 35 first_idx 23 subseq_idx 36 
mark_precise: frame0: regs=r1 stack= before 35: (57) r2 &= 1
mark_precise: frame0: regs=r1 stack= before 34: (79) r2 = *(u64 *)(r0 +0)
mark_precise: frame0: regs=r1 stack= before 33: (15) if r0 == 0x0 goto pc+2
mark_precise: frame0: regs=r1 stack= before 32: (b7) r2 = 0
mark_precise: frame0: regs=r1 stack= before 31: (b7) r1 = 0
38: R1=0 R10=fp0 fp-24=0000????
38: (b7) r9 = 1                       ; R9_w=1
39: (63) *(u32 *)(r10 -24) = r9       ; R9_w=1 R10=fp0 fp-24=00001
40: (7b) *(u64 *)(r10 -32) = r9       ; R9_w=1 R10=fp0 fp-32_w=1
41: (bf) r6 = r10                     ; R6_w=fp0 R10=fp0
;  @ wm.bpf.c:0
42: (07) r6 += -20                    ; R6_w=fp-20
; __u64 d   = NAND_GATE(G0, a, b); @ wm.bpf.c:130
43: (18) r1 = 0xffff0000c8517000      ; R1_w=map_ptr(map=G0,ks=4,vs=8)
45: (bf) r2 = r6                      ; R2_w=fp-20 R6_w=fp-20
46: (85) call bpf_map_delete_elem#3   ; R0_w=scalar()
47: (bf) r2 = r10                     ; R2_w=fp0 R10=fp0
;  @ wm.bpf.c:0
48: (07) r2 += -24                    ; R2_w=fp-24
; __u64 d   = NAND_GATE(G0, a, b); @ wm.bpf.c:130
49: (18) r1 = 0xffff0000c8517000      ; R1_w=map_ptr(map=G0,ks=4,vs=8)
51: (85) call bpf_map_delete_elem#3   ; R0=scalar()
52: (b7) r1 = 2                       ; R1_w=2
53: (63) *(u32 *)(r10 -36) = r1       ; R1_w=2 R10=fp0 fp-40=mmmm????
54: (bf) r2 = r10                     ; R2_w=fp0 R10=fp0
;  @ wm.bpf.c:0
55: (07) r2 += -36                    ; R2_w=fp-36
; __u64 d   = NAND_GATE(G0, a, b); @ wm.bpf.c:130
56: (18) r1 = 0xffff0000c8517000      ; R1_w=map_ptr(map=G0,ks=4,vs=8)
58: (85) call bpf_map_delete_elem#3   ; R0_w=scalar()
59: (bf) r7 = r10                     ; R7_w=fp0 R10=fp0
;  @ wm.bpf.c:0
60: (07) r7 += -32                    ; R7_w=fp-32
; __u64 d   = NAND_GATE(G0, a, b); @ wm.bpf.c:130
61: (18) r1 = 0xffff0000c8517000      ; R1_w=map_ptr(map=G0,ks=4,vs=8)
63: (bf) r2 = r6                      ; R2_w=fp-20 R6=fp-20
64: (bf) r3 = r7                      ; R3_w=fp-32 R7_w=fp-32
65: (b7) r4 = 1                       ; R4_w=1
66: (85) call bpf_map_update_elem#2   ; R0=scalar()
67: (bf) r8 = r0                      ; R0=scalar(id=4) R8_w=scalar(id=4)
68: (61) r1 = *(u32 *)(r10 -20)       ; R1_w=0 R10=fp0 fp-24=00001
69: (61) r2 = *(u32 *)(r10 -24)       ; R2_w=1 R10=fp0 fp-24=00001
70: (1f) r2 -= r1                     ; R1_w=0 R2_w=1
71: (79) r3 = *(u64 *)(r10 -48)       ; R3_w=scalar(id=1,smin=smin32=0,smax=umax=smax32=umax32=1,var_off=(0x0; 0x1)) R10=fp0 fp-48=scalar(id=1,smin=smin32=0,smax=umax=smax32=umax32=1,var_off=(0x0; 0x1))
72: (2f) r2 *= r3                     ; R2_w=scalar(smin=smin32=0,smax=umax=smax32=umax32=1,var_off=(0x0; 0x1)) R3_w=scalar(id=1,smin=smin32=0,smax=umax=smax32=umax32=1,var_off=(0x0; 0x1))
73: (0f) r2 += r1                     ; R1_w=0 R2_w=scalar(smin=smin32=0,smax=umax=smax32=umax32=1,var_off=(0x0; 0x1))
74: (63) *(u32 *)(r10 -40) = r2       ; R2_w=scalar(id=5,smin=smin32=0,smax=umax=smax32=umax32=1,var_off=(0x0; 0x1)) R10=fp0 fp-40=mmmmscalar(id=5,smin=smin32=0,smax=umax=smax32=umax32=1,var_off=(0x0; 0x1))
75: (bf) r2 = r10                     ; R2_w=fp0 R10=fp0
;  @ wm.bpf.c:0
76: (07) r2 += -40                    ; R2_w=fp-40
; __u64 d   = NAND_GATE(G0, a, b); @ wm.bpf.c:130
77: (18) r1 = 0xffff0000c8517000      ; R1_w=map_ptr(map=G0,ks=4,vs=8)
79: (bf) r3 = r7                      ; R3_w=fp-32 R7=fp-32
80: (b7) r4 = 0                       ; R4_w=0
81: (85) call bpf_map_update_elem#2   ; R0_w=scalar()
82: (4f) r8 |= r0                     ; R0_w=scalar() R8_w=scalar()
83: (18) r1 = 0xffff0000c8517000      ; R1_w=map_ptr(map=G0,ks=4,vs=8)
85: (bf) r2 = r6                      ; R2_w=fp-20 R6=fp-20
86: (bf) r3 = r7                      ; R3_w=fp-32 R7=fp-32
87: (b7) r4 = 0                       ; R4_w=0
88: (85) call bpf_map_update_elem#2   ; R0=scalar()
89: (7b) *(u64 *)(r10 -56) = r0       ; R0=scalar(id=6) R10=fp0 fp-56_w=scalar(id=6)
90: (15) if r8 == 0x0 goto pc+20      ; R8=scalar(umin=1)
91: (b7) r1 = 161                     ; R1_w=161
; __u32 idx = ERR_IDX; @ wm.bpf.c:54
92: (63) *(u32 *)(r10 -4) = r1        ; R1_w=161 R10=fp0 fp-8=mmmm????
93: (bf) r2 = r10                     ; R2_w=fp0 R10=fp0
;  @ wm.bpf.c:0
94: (07) r2 += -4                     ; R2_w=fp-4
; __u64 *p = bpf_map_lookup_elem(&TAPE, &idx); @ wm.bpf.c:55
95: (18) r1 = 0xffff0000ccc96000      ; R1_w=map_ptr(map=TAPE,ks=4,vs=8)
97: (85) call bpf_map_lookup_elem#1   ; R0=map_value_or_null(id=7,map=TAPE,ks=4,vs=8)
98: (b7) r1 = 1                       ; R1_w=1
; __u64 v = (p ? *p : 0) + 1; @ wm.bpf.c:56
99: (15) if r0 == 0x0 goto pc+2       ; R0=map_value(map=TAPE,ks=4,vs=8)
100: (79) r1 = *(u64 *)(r0 +0)        ; R0=map_value(map=TAPE,ks=4,vs=8) R1_w=scalar()
101: (07) r1 += 1                     ; R1_w=scalar()
102: (7b) *(u64 *)(r10 -16) = r1      ; R1_w=scalar(id=8) R10=fp0 fp-16_w=scalar(id=8)
103: (bf) r2 = r10                    ; R2_w=fp0 R10=fp0
104: (07) r2 += -4                    ; R2_w=fp-4
105: (bf) r3 = r10                    ; R3_w=fp0 R10=fp0
106: (07) r3 += -16                   ; R3_w=fp-16
; bpf_map_update_elem(&TAPE, &idx, &v, BPF_ANY); @ wm.bpf.c:57
107: (18) r1 = 0xffff0000ccc96000     ; R1_w=map_ptr(map=TAPE,ks=4,vs=8)
109: (b7) r4 = 0                      ; R4_w=0
110: (85) call bpf_map_update_elem#2          ; R0=scalar()
111: (b7) r6 = 0                      ; R6_w=0
; __u64 e   = NAND_GATE(G1, a, d); @ wm.bpf.c:131
112: (63) *(u32 *)(r10 -20) = r6
mark_precise: frame0: last_idx 112 first_idx 111 subseq_idx -1 
mark_precise: frame0: regs=r6 stack= before 111: (b7) r6 = 0
113: R6_w=0 R10=fp0 fp-24=0000mmmm
113: (63) *(u32 *)(r10 -24) = r9      ; R9=1 R10=fp0 fp-24=00001
114: (7b) *(u64 *)(r10 -32) = r9      ; R9=1 R10=fp0 fp-32_w=1
115: (bf) r7 = r10                    ; R7_w=fp0 R10=fp0
;  @ wm.bpf.c:0
116: (07) r7 += -20                   ; R7_w=fp-20
; __u64 e   = NAND_GATE(G1, a, d); @ wm.bpf.c:131
117: (18) r1 = 0xffff0000c8514800     ; R1_w=map_ptr(map=G1,ks=4,vs=8)
119: (bf) r2 = r7                     ; R2_w=fp-20 R7_w=fp-20
120: (85) call bpf_map_delete_elem#3          ; R0_w=scalar()
121: (bf) r2 = r10                    ; R2_w=fp0 R10=fp0
;  @ wm.bpf.c:0
122: (07) r2 += -24                   ; R2_w=fp-24
; __u64 e   = NAND_GATE(G1, a, d); @ wm.bpf.c:131
123: (18) r1 = 0xffff0000c8514800     ; R1_w=map_ptr(map=G1,ks=4,vs=8)
125: (85) call bpf_map_delete_elem#3          ; R0=scalar()
126: (b7) r1 = 2                      ; R1_w=2
127: (63) *(u32 *)(r10 -36) = r1      ; R1_w=2 R10=fp0 fp-40=mmmmmmmm
128: (bf) r2 = r10                    ; R2_w=fp0 R10=fp0
;  @ wm.bpf.c:0
129: (07) r2 += -36                   ; R2_w=fp-36
; __u64 e   = NAND_GATE(G1, a, d); @ wm.bpf.c:131
130: (18) r1 = 0xffff0000c8514800     ; R1_w=map_ptr(map=G1,ks=4,vs=8)
132: (85) call bpf_map_delete_elem#3          ; R0_w=scalar()
133: (bf) r8 = r10                    ; R8_w=fp0 R10=fp0
;  @ wm.bpf.c:0
134: (07) r8 += -32                   ; R8_w=fp-32
; __u64 e   = NAND_GATE(G1, a, d); @ wm.bpf.c:131
135: (18) r1 = 0xffff0000c8514800     ; R1_w=map_ptr(map=G1,ks=4,vs=8)
137: (bf) r2 = r7                     ; R2_w=fp-20 R7=fp-20
138: (bf) r3 = r8                     ; R3_w=fp-32 R8_w=fp-32
139: (b7) r4 = 1                      ; R4_w=1
140: (85) call bpf_map_update_elem#2          ; R0=scalar()
141: (bf) r9 = r0                     ; R0=scalar(id=9) R9_w=scalar(id=9)
142: (61) r1 = *(u32 *)(r10 -20)      ; R1_w=0 R10=fp0 fp-24=00001
143: (61) r2 = *(u32 *)(r10 -24)      ; R2_w=1 R10=fp0 fp-24=00001
144: (1f) r2 -= r1                    ; R1_w=0 R2_w=1
145: (79) r3 = *(u64 *)(r10 -48)      ; R3_w=scalar(id=1,smin=smin32=0,smax=umax=smax32=umax32=1,var_off=(0x0; 0x1)) R10=fp0 fp-48=scalar(id=1,smin=smin32=0,smax=umax=smax32=umax32=1,var_off=(0x0; 0x1))
146: (2f) r2 *= r3                    ; R2_w=scalar(smin=smin32=0,smax=umax=smax32=umax32=1,var_off=(0x0; 0x1)) R3_w=scalar(id=1,smin=smin32=0,smax=umax=smax32=umax32=1,var_off=(0x0; 0x1))
147: (0f) r2 += r1                    ; R1_w=0 R2_w=scalar(smin=smin32=0,smax=umax=smax32=umax32=1,var_off=(0x0; 0x1))
148: (63) *(u32 *)(r10 -40) = r2      ; R2_w=scalar(id=10,smin=smin32=0,smax=umax=smax32=umax32=1,var_off=(0x0; 0x1)) R10=fp0 fp-40=mmmmscalar(id=10,smin=smin32=0,smax=umax=smax32=umax32=1,var_off=(0x0; 0x1))
149: (bf) r2 = r10                    ; R2_w=fp0 R10=fp0
;  @ wm.bpf.c:0
150: (07) r2 += -40                   ; R2_w=fp-40
; __u64 e   = NAND_GATE(G1, a, d); @ wm.bpf.c:131
151: (18) r1 = 0xffff0000c8514800     ; R1_w=map_ptr(map=G1,ks=4,vs=8)
153: (bf) r3 = r8                     ; R3_w=fp-32 R8=fp-32
154: (b7) r4 = 0                      ; R4_w=0
155: (85) call bpf_map_update_elem#2          ; R0_w=scalar()
156: (4f) r9 |= r0                    ; R0_w=scalar() R9_w=scalar()
157: (18) r1 = 0xffff0000c8514800     ; R1_w=map_ptr(map=G1,ks=4,vs=8)
159: (bf) r2 = r7                     ; R2_w=fp-20 R7=fp-20
160: (bf) r3 = r8                     ; R3_w=fp-32 R8=fp-32
161: (b7) r4 = 0                      ; R4_w=0
162: (85) call bpf_map_update_elem#2          ; R0=scalar()
163: (7b) *(u64 *)(r10 -48) = r0      ; R0=scalar(id=11) R10=fp0 fp-48_w=scalar(id=11)
164: (15) if r9 == 0x0 goto pc+20     ; R9=scalar(umin=1)
165: (b7) r1 = 161                    ; R1_w=161
; __u32 idx = ERR_IDX; @ wm.bpf.c:54
166: (63) *(u32 *)(r10 -4) = r1       ; R1_w=161 R10=fp0 fp-8=mmmm????
167: (bf) r2 = r10                    ; R2_w=fp0 R10=fp0
;  @ wm.bpf.c:0
168: (07) r2 += -4                    ; R2_w=fp-4
; __u64 *p = bpf_map_lookup_elem(&TAPE, &idx); @ wm.bpf.c:55
169: (18) r1 = 0xffff0000ccc96000     ; R1_w=map_ptr(map=TAPE,ks=4,vs=8)
171: (85) call bpf_map_lookup_elem#1          ; R0=map_value_or_null(id=12,map=TAPE,ks=4,vs=8)
172: (b7) r1 = 1                      ; R1_w=1
; __u64 v = (p ? *p : 0) + 1; @ wm.bpf.c:56
173: (15) if r0 == 0x0 goto pc+2      ; R0=map_value(map=TAPE,ks=4,vs=8)
174: (79) r1 = *(u64 *)(r0 +0)        ; R0=map_value(map=TAPE,ks=4,vs=8) R1_w=scalar()
175: (07) r1 += 1                     ; R1_w=scalar()
176: (7b) *(u64 *)(r10 -16) = r1      ; R1_w=scalar(id=13) R10=fp0 fp-16_w=scalar(id=13)
177: (bf) r2 = r10                    ; R2_w=fp0 R10=fp0
178: (07) r2 += -4                    ; R2_w=fp-4
179: (bf) r3 = r10                    ; R3_w=fp0 R10=fp0
180: (07) r3 += -16                   ; R3_w=fp-16
; bpf_map_update_elem(&TAPE, &idx, &v, BPF_ANY); @ wm.bpf.c:57
181: (18) r1 = 0xffff0000ccc96000     ; R1_w=map_ptr(map=TAPE,ks=4,vs=8)
183: (b7) r4 = 0                      ; R4_w=0
184: (85) call bpf_map_update_elem#2          ; R0=scalar()
; __u64 f   = NAND_GATE(G2, b, d); @ wm.bpf.c:132
185: (63) *(u32 *)(r10 -20) = r6
mark_precise: frame0: last_idx 185 first_idx 185 subseq_idx -1 
mark_precise: frame0: parent state regs=r6 stack=:  R0_w=scalar() R6_r=P0 R7=fp-20 R8=fp-32 R9=scalar(umin=1) R10=fp0 fp-8=mmmm???? fp-16_w=scalar(id=13) fp-24=00001 fp-32=1 fp-40=mmmmscalar(id=10,smin=smin32=0,smax=umax=smax32=umax32=1,var_off=(0x0; 0x1)) fp-48=scalar(id=11) fp-56=scalar(id=6) fp-64=scalar(id=3,smin=smin32=0,smax=umax=smax32=umax32=1,var_off=(0x0; 0x1)) fp-72=scalar(id=2,smin=smin32=0,smax=umax=smax32=umax32=1,var_off=(0x0; 0x1))
mark_precise: frame0: last_idx 184 first_idx 172 subseq_idx 185 
mark_precise: frame0: regs=r6 stack= before 184: (85) call bpf_map_update_elem#2
mark_precise: frame0: regs=r6 stack= before 183: (b7) r4 = 0
mark_precise: frame0: regs=r6 stack= before 181: (18) r1 = 0xffff0000ccc96000
mark_precise: frame0: regs=r6 stack= before 180: (07) r3 += -16
mark_precise: frame0: regs=r6 stack= before 179: (bf) r3 = r10
mark_precise: frame0: regs=r6 stack= before 178: (07) r2 += -4
mark_precise: frame0: regs=r6 stack= before 177: (bf) r2 = r10
mark_precise: frame0: regs=r6 stack= before 176: (7b) *(u64 *)(r10 -16) = r1
mark_precise: frame0: regs=r6 stack= before 175: (07) r1 += 1
mark_precise: frame0: regs=r6 stack= before 174: (79) r1 = *(u64 *)(r0 +0)
mark_precise: frame0: regs=r6 stack= before 173: (15) if r0 == 0x0 goto pc+2
mark_precise: frame0: regs=r6 stack= before 172: (b7) r1 = 1
mark_precise: frame0: parent state regs=r6 stack=:  R0_rw=map_value_or_null(id=12,map=TAPE,ks=4,vs=8) R6_r=P0 R7=fp-20 R8=fp-32 R9=scalar(umin=1) R10=fp0 fp-8_r=mmmm???? fp-16=scalar(id=8) fp-24=00001 fp-32=1 fp-40=mmmmscalar(id=10,smin=smin32=0,smax=umax=smax32=umax32=1,var_off=(0x0; 0x1)) fp-48_w=scalar(id=11) fp-56=scalar(id=6) fp-64=scalar(id=3,smin=smin32=0,smax=umax=smax32=umax32=1,var_off=(0x0; 0x1)) fp-72=scalar(id=2,smin=smin32=0,smax=umax=smax32=umax32=1,var_off=(0x0; 0x1))
mark_precise: frame0: last_idx 171 first_idx 163 subseq_idx 172 
mark_precise: frame0: regs=r6 stack= before 171: (85) call bpf_map_lookup_elem#1
mark_precise: frame0: regs=r6 stack= before 169: (18) r1 = 0xffff0000ccc96000
mark_precise: frame0: regs=r6 stack= before 168: (07) r2 += -4
mark_precise: frame0: regs=r6 stack= before 167: (bf) r2 = r10
mark_precise: frame0: regs=r6 stack= before 166: (63) *(u32 *)(r10 -4) = r1
mark_precise: frame0: regs=r6 stack= before 165: (b7) r1 = 161
mark_precise: frame0: regs=r6 stack= before 164: (15) if r9 == 0x0 goto pc+20
mark_precise: frame0: regs=r6 stack= before 163: (7b) *(u64 *)(r10 -48) = r0
mark_precise: frame0: parent state regs=r6 stack=:  R0_rw=scalar() R6_r=P0 R7=fp-20 R8=fp-32 R9_rw=scalar() R10=fp0 fp-8_r=mmmm???? fp-16=scalar(id=8) fp-24=00001 fp-32=1 fp-40=mmmmscalar(id=10,smin=smin32=0,smax=umax=smax32=umax32=1,var_off=(0x0; 0x1)) fp-48=scalar(id=1,smin=smin32=0,smax=umax=smax32=umax32=1,var_off=(0x0; 0x1)) fp-56=scalar(id=6) fp-64=scalar(id=3,smin=smin32=0,smax=umax=smax32=umax32=1,var_off=(0x0; 0x1)) fp-72=scalar(id=2,smin=smin32=0,smax=umax=smax32=umax32=1,var_off=(0x0; 0x1))
mark_precise: frame0: last_idx 162 first_idx 141 subseq_idx 163 
mark_precise: frame0: regs=r6 stack= before 162: (85) call bpf_map_update_elem#2
mark_precise: frame0: regs=r6 stack= before 161: (b7) r4 = 0
mark_precise: frame0: regs=r6 stack= before 160: (bf) r3 = r8
mark_precise: frame0: regs=r6 stack= before 159: (bf) r2 = r7
mark_precise: frame0: regs=r6 stack= before 157: (18) r1 = 0xffff0000c8514800
mark_precise: frame0: regs=r6 stack= before 156: (4f) r9 |= r0
mark_precise: frame0: regs=r6 stack= before 155: (85) call bpf_map_update_elem#2
mark_precise: frame0: regs=r6 stack= before 154: (b7) r4 = 0
mark_precise: frame0: regs=r6 stack= before 153: (bf) r3 = r8
mark_precise: frame0: regs=r6 stack= before 151: (18) r1 = 0xffff0000c8514800
mark_precise: frame0: regs=r6 stack= before 150: (07) r2 += -40
mark_precise: frame0: regs=r6 stack= before 149: (bf) r2 = r10
mark_precise: frame0: regs=r6 stack= before 148: (63) *(u32 *)(r10 -40) = r2
mark_precise: frame0: regs=r6 stack= before 147: (0f) r2 += r1
mark_precise: frame0: regs=r6 stack= before 146: (2f) r2 *= r3
mark_precise: frame0: regs=r6 stack= before 145: (79) r3 = *(u64 *)(r10 -48)
mark_precise: frame0: regs=r6 stack= before 144: (1f) r2 -= r1
mark_precise: frame0: regs=r6 stack= before 143: (61) r2 = *(u32 *)(r10 -24)
mark_precise: frame0: regs=r6 stack= before 142: (61) r1 = *(u32 *)(r10 -20)
mark_precise: frame0: regs=r6 stack= before 141: (bf) r9 = r0
mark_precise: frame0: parent state regs=r6 stack=:  R0_rw=scalar() R6_r=P0 R7_r=fp-20 R8_rw=fp-32 R9=1 R10=fp0 fp-8_r=mmmm???? fp-16=scalar(id=8) fp-24_r=00001 fp-32_r=1 fp-40_r=mmmmmmmm fp-48_r=scalar(id=1,smin=smin32=0,smax=umax=smax32=umax32=1,var_off=(0x0; 0x1)) fp-56=scalar(id=6) fp-64=scalar(id=3,smin=smin32=0,smax=umax=smax32=umax32=1,var_off=(0x0; 0x1)) fp-72=scalar(id=2,smin=smin32=0,smax=umax=smax32=umax32=1,var_off=(0x0; 0x1))
mark_precise: frame0: last_idx 140 first_idx 126 subseq_idx 141 
mark_precise: frame0: regs=r6 stack= before 140: (85) call bpf_map_update_elem#2
mark_precise: frame0: regs=r6 stack= before 139: (b7) r4 = 1
mark_precise: frame0: regs=r6 stack= before 138: (bf) r3 = r8
mark_precise: frame0: regs=r6 stack= before 137: (bf) r2 = r7
mark_precise: frame0: regs=r6 stack= before 135: (18) r1 = 0xffff0000c8514800
mark_precise: frame0: regs=r6 stack= before 134: (07) r8 += -32
mark_precise: frame0: regs=r6 stack= before 133: (bf) r8 = r10
mark_precise: frame0: regs=r6 stack= before 132: (85) call bpf_map_delete_elem#3
mark_precise: frame0: regs=r6 stack= before 130: (18) r1 = 0xffff0000c8514800
mark_precise: frame0: regs=r6 stack= before 129: (07) r2 += -36
mark_precise: frame0: regs=r6 stack= before 128: (bf) r2 = r10
mark_precise: frame0: regs=r6 stack= before 127: (63) *(u32 *)(r10 -36) = r1
mark_precise: frame0: regs=r6 stack= before 126: (b7) r1 = 2
mark_precise: frame0: parent state regs=r6 stack=:  R0_w=scalar() R6_rw=P0 R7_rw=fp-20 R8=scalar(umin=1) R9=1 R10=fp0 fp-8_r=mmmm???? fp-16=scalar(id=8) fp-24_r=00001 fp-32_rw=1 fp-40_r=mmmmscalar(id=5,smin=smin32=0,smax=umax=smax32=umax32=1,var_off=(0x0; 0x1)) fp-48_r=scalar(id=1,smin=smin32=0,smax=umax=smax32=umax32=1,var_off=(0x0; 0x1)) fp-56=scalar(id=6) fp-64=scalar(id=3,smin=smin32=0,smax=umax=smax32=umax32=1,var_off=(0x0; 0x1)) fp-72=scalar(id=2,smin=smin32=0,smax=umax=smax32=umax32=1,var_off=(0x0; 0x1))
mark_precise: frame0: last_idx 125 first_idx 111 subseq_idx 126 
mark_precise: frame0: regs=r6 stack= before 125: (85) call bpf_map_delete_elem#3
mark_precise: frame0: regs=r6 stack= before 123: (18) r1 = 0xffff0000c8514800
mark_precise: frame0: regs=r6 stack= before 122: (07) r2 += -24
mark_precise: frame0: regs=r6 stack= before 121: (bf) r2 = r10
mark_precise: frame0: regs=r6 stack= before 120: (85) call bpf_map_delete_elem#3
mark_precise: frame0: regs=r6 stack= before 119: (bf) r2 = r7
mark_precise: frame0: regs=r6 stack= before 117: (18) r1 = 0xffff0000c8514800
mark_precise: frame0: regs=r6 stack= before 116: (07) r7 += -20
mark_precise: frame0: regs=r6 stack= before 115: (bf) r7 = r10
mark_precise: frame0: regs=r6 stack= before 114: (7b) *(u64 *)(r10 -32) = r9
mark_precise: frame0: regs=r6 stack= before 113: (63) *(u32 *)(r10 -24) = r9
mark_precise: frame0: regs=r6 stack= before 112: (63) *(u32 *)(r10 -20) = r6
mark_precise: frame0: regs=r6 stack= before 111: (b7) r6 = 0
186: R6=0 R10=fp0 fp-24=0000mmmm
186: (b7) r1 = 1                      ; R1_w=1
187: (63) *(u32 *)(r10 -24) = r1      ; R1_w=1 R10=fp0 fp-24=00001
188: (7b) *(u64 *)(r10 -32) = r1      ; R1_w=1 R10=fp0 fp-32_w=1
189: (bf) r8 = r10                    ; R8_w=fp0 R10=fp0
;  @ wm.bpf.c:0
190: (07) r8 += -20                   ; R8_w=fp-20
; __u64 f   = NAND_GATE(G2, b, d); @ wm.bpf.c:132
191: (18) r1 = 0xffff0000c8516c00     ; R1_w=map_ptr(map=G2,ks=4,vs=8)
193: (bf) r2 = r8                     ; R2_w=fp-20 R8_w=fp-20
194: (85) call bpf_map_delete_elem#3          ; R0_w=scalar()
195: (bf) r7 = r10                    ; R7_w=fp0 R10=fp0
;  @ wm.bpf.c:0
196: (07) r7 += -24                   ; R7_w=fp-24
; __u64 f   = NAND_GATE(G2, b, d); @ wm.bpf.c:132
197: (18) r1 = 0xffff0000c8516c00     ; R1_w=map_ptr(map=G2,ks=4,vs=8)
199: (bf) r2 = r7                     ; R2_w=fp-24 R7_w=fp-24
200: (85) call bpf_map_delete_elem#3          ; R0=scalar()
201: (b7) r1 = 2                      ; R1_w=2
202: (63) *(u32 *)(r10 -36) = r1      ; R1_w=2 R10=fp0 fp-40=mmmmmmmm
203: (bf) r2 = r10                    ; R2_w=fp0 R10=fp0
;  @ wm.bpf.c:0
204: (07) r2 += -36                   ; R2_w=fp-36
; __u64 f   = NAND_GATE(G2, b, d); @ wm.bpf.c:132
205: (18) r1 = 0xffff0000c8516c00     ; R1_w=map_ptr(map=G2,ks=4,vs=8)
207: (85) call bpf_map_delete_elem#3          ; R0_w=scalar()
208: (bf) r6 = r10                    ; R6_w=fp0 R10=fp0
;  @ wm.bpf.c:0
209: (07) r6 += -32                   ; R6_w=fp-32
; __u64 f   = NAND_GATE(G2, b, d); @ wm.bpf.c:132
210: (18) r1 = 0xffff0000c8516c00     ; R1_w=map_ptr(map=G2,ks=4,vs=8)
212: (bf) r2 = r8                     ; R2_w=fp-20 R8=fp-20
213: (bf) r3 = r6                     ; R3_w=fp-32 R6_w=fp-32
214: (b7) r4 = 1                      ; R4_w=1
215: (85) call bpf_map_update_elem#2          ; R0=scalar()
216: (bf) r9 = r0                     ; R0=scalar(id=14) R9_w=scalar(id=14)
217: (bf) r1 = r8                     ; R1_w=fp-20 R8=fp-20
218: (79) r2 = *(u64 *)(r10 -72)      ; R2_w=scalar(id=2,smin=smin32=0,smax=umax=smax32=umax32=1,var_off=(0x0; 0x1)) R10=fp0 fp-72=scalar(id=2,smin=smin32=0,smax=umax=smax32=umax32=1,var_off=(0x0; 0x1))
219: (15) if r2 == 0x0 goto pc+1      ; R2_w=1
220: (bf) r1 = r7                     ; R1_w=fp-24 R7=fp-24
221: (61) r1 = *(u32 *)(r1 +0)        ; R1_w=1 fp-24=00001
222: (63) *(u32 *)(r10 -40) = r1      ; R1_w=1 R10=fp0 fp-40=mmmm1
223: (bf) r2 = r10                    ; R2_w=fp0 R10=fp0
224: (07) r2 += -40                   ; R2_w=fp-40
225: (18) r1 = 0xffff0000c8516c00     ; R1_w=map_ptr(map=G2,ks=4,vs=8)
227: (bf) r3 = r6                     ; R3_w=fp-32 R6=fp-32
228: (b7) r4 = 0                      ; R4_w=0
229: (85) call bpf_map_update_elem#2          ; R0=scalar()
230: (bf) r7 = r0                     ; R0=scalar(id=15) R7_w=scalar(id=15)
231: (18) r1 = 0xffff0000c8516c00     ; R1_w=map_ptr(map=G2,ks=4,vs=8)
233: (bf) r2 = r8                     ; R2_w=fp-20 R8=fp-20
234: (bf) r3 = r6                     ; R3_w=fp-32 R6=fp-32
235: (b7) r4 = 0                      ; R4_w=0
236: (85) call bpf_map_update_elem#2          ; R0_w=scalar()
237: (4f) r9 |= r7                    ; R7_w=scalar(id=15) R9_w=scalar()
238: (15) if r9 == 0x0 goto pc+20     ; R9_w=scalar(umin=1)
239: (b7) r1 = 161                    ; R1_w=161
; __u32 idx = ERR_IDX; @ wm.bpf.c:54
240: (63) *(u32 *)(r10 -4) = r1       ; R1_w=161 R10=fp0 fp-8=mmmm????
241: (bf) r2 = r10                    ; R2_w=fp0 R10=fp0
;  @ wm.bpf.c:0
242: (07) r2 += -4                    ; R2_w=fp-4
; __u64 *p = bpf_map_lookup_elem(&TAPE, &idx); @ wm.bpf.c:55
243: (18) r1 = 0xffff0000ccc96000     ; R1_w=map_ptr(map=TAPE,ks=4,vs=8)
245: (85) call bpf_map_lookup_elem#1          ; R0=map_value_or_null(id=16,map=TAPE,ks=4,vs=8)
246: (b7) r1 = 1                      ; R1_w=1
; __u64 v = (p ? *p : 0) + 1; @ wm.bpf.c:56
247: (15) if r0 == 0x0 goto pc+2      ; R0=map_value(map=TAPE,ks=4,vs=8)
248: (79) r1 = *(u64 *)(r0 +0)        ; R0=map_value(map=TAPE,ks=4,vs=8) R1_w=scalar()
249: (07) r1 += 1                     ; R1_w=scalar()
250: (7b) *(u64 *)(r10 -16) = r1      ; R1_w=scalar(id=17) R10=fp0 fp-16_w=scalar(id=17)
251: (bf) r2 = r10                    ; R2_w=fp0 R10=fp0
252: (07) r2 += -4                    ; R2_w=fp-4
253: (bf) r3 = r10                    ; R3_w=fp0 R10=fp0
254: (07) r3 += -16                   ; R3_w=fp-16
; bpf_map_update_elem(&TAPE, &idx, &v, BPF_ANY); @ wm.bpf.c:57
255: (18) r1 = 0xffff0000ccc96000     ; R1_w=map_ptr(map=TAPE,ks=4,vs=8)
257: (b7) r4 = 0                      ; R4_w=0
258: (85) call bpf_map_update_elem#2          ; R0=scalar()
259: (b7) r1 = 0                      ; R1_w=0
; __u64 xab = NAND_GATE(G3, e, f); @ wm.bpf.c:133
260: (63) *(u32 *)(r10 -20) = r1
mark_precise: frame0: last_idx 260 first_idx 259 subseq_idx -1 
mark_precise: frame0: regs=r1 stack= before 259: (b7) r1 = 0
261: R1_w=0 R10=fp0 fp-24=0000mmmm
261: (b7) r1 = 1                      ; R1_w=1
262: (63) *(u32 *)(r10 -24) = r1      ; R1_w=1 R10=fp0 fp-24=00001
263: (7b) *(u64 *)(r10 -32) = r1      ; R1_w=1 R10=fp0 fp-32_w=1
264: (bf) r7 = r10                    ; R7_w=fp0 R10=fp0
265: (07) r7 += -20                   ; R7_w=fp-20
266: (18) r1 = 0xffff0000c8517c00     ; R1_w=map_ptr(map=G3,ks=4,vs=8)
268: (bf) r2 = r7                     ; R2_w=fp-20 R7_w=fp-20
269: (85) call bpf_map_delete_elem#3          ; R0_w=scalar()
270: (bf) r8 = r10                    ; R8_w=fp0 R10=fp0
271: (07) r8 += -24                   ; R8_w=fp-24
272: (18) r1 = 0xffff0000c8517c00     ; R1_w=map_ptr(map=G3,ks=4,vs=8)
274: (bf) r2 = r8                     ; R2_w=fp-24 R8_w=fp-24
275: (85) call bpf_map_delete_elem#3          ; R0=scalar()
276: (b7) r1 = 2                      ; R1_w=2
277: (63) *(u32 *)(r10 -36) = r1      ; R1_w=2 R10=fp0 fp-40=mmmmmmmm
278: (bf) r2 = r10                    ; R2_w=fp0 R10=fp0
279: (07) r2 += -36                   ; R2_w=fp-36
280: (18) r1 = 0xffff0000c8517c00     ; R1_w=map_ptr(map=G3,ks=4,vs=8)
282: (85) call bpf_map_delete_elem#3          ; R0_w=scalar()
283: (bf) r9 = r10                    ; R9_w=fp0 R10=fp0
284: (07) r9 += -32                   ; R9_w=fp-32
285: (18) r1 = 0xffff0000c8517c00     ; R1_w=map_ptr(map=G3,ks=4,vs=8)
287: (bf) r2 = r7                     ; R2_w=fp-20 R7=fp-20
288: (bf) r3 = r9                     ; R3_w=fp-32 R9_w=fp-32
289: (b7) r4 = 1                      ; R4_w=1
290: (85) call bpf_map_update_elem#2          ; R0=scalar()
291: (bf) r6 = r0                     ; R0=scalar(id=18) R6_w=scalar(id=18)
292: (79) r1 = *(u64 *)(r10 -48)      ; R1_w=scalar(id=11) R10=fp0 fp-48=scalar(id=11)
293: (15) if r1 == 0x0 goto pc+1      ; R1_w=scalar(id=11,umin=1)
294: (bf) r8 = r7                     ; R7=fp-20 R8_w=fp-20
295: (61) r1 = *(u32 *)(r8 +0)        ; R1_w=0 R8_w=fp-20 fp-24=00001
296: (63) *(u32 *)(r10 -40) = r1      ; R1_w=0 R10=fp0 fp-40=mmmm0
297: (bf) r2 = r10                    ; R2_w=fp0 R10=fp0
298: (07) r2 += -40                   ; R2_w=fp-40
299: (18) r1 = 0xffff0000c8517c00     ; R1_w=map_ptr(map=G3,ks=4,vs=8)
301: (bf) r3 = r9                     ; R3_w=fp-32 R9=fp-32
302: (b7) r4 = 0                      ; R4_w=0
303: (85) call bpf_map_update_elem#2          ; R0=scalar()
304: (4f) r6 |= r0                    ; R0=scalar() R6_w=scalar()
305: (18) r1 = 0xffff0000c8517c00     ; R1_w=map_ptr(map=G3,ks=4,vs=8)
307: (bf) r2 = r7                     ; R2_w=fp-20 R7=fp-20
308: (bf) r3 = r9                     ; R3_w=fp-32 R9=fp-32
309: (b7) r4 = 0                      ; R4_w=0
310: (85) call bpf_map_update_elem#2          ; R0_w=scalar()
311: (7b) *(u64 *)(r10 -48) = r0      ; R0_w=scalar(id=19) R10=fp0 fp-48_w=scalar(id=19)
312: (15) if r6 == 0x0 goto pc+20     ; R6_w=scalar(umin=1)
313: (b7) r1 = 161                    ; R1_w=161
; __u32 idx = ERR_IDX; @ wm.bpf.c:54
314: (63) *(u32 *)(r10 -4) = r1       ; R1_w=161 R10=fp0 fp-8=mmmm????
315: (bf) r2 = r10                    ; R2_w=fp0 R10=fp0
;  @ wm.bpf.c:0
316: (07) r2 += -4                    ; R2_w=fp-4
; __u64 *p = bpf_map_lookup_elem(&TAPE, &idx); @ wm.bpf.c:55
317: (18) r1 = 0xffff0000ccc96000     ; R1_w=map_ptr(map=TAPE,ks=4,vs=8)
319: (85) call bpf_map_lookup_elem#1          ; R0=map_value_or_null(id=20,map=TAPE,ks=4,vs=8)
320: (b7) r1 = 1                      ; R1_w=1
; __u64 v = (p ? *p : 0) + 1; @ wm.bpf.c:56
321: (15) if r0 == 0x0 goto pc+2      ; R0=map_value(map=TAPE,ks=4,vs=8)
322: (79) r1 = *(u64 *)(r0 +0)        ; R0=map_value(map=TAPE,ks=4,vs=8) R1_w=scalar()
323: (07) r1 += 1                     ; R1_w=scalar()
324: (7b) *(u64 *)(r10 -16) = r1      ; R1_w=scalar(id=21) R10=fp0 fp-16_w=scalar(id=21)
325: (bf) r2 = r10                    ; R2_w=fp0 R10=fp0
326: (07) r2 += -4                    ; R2_w=fp-4
327: (bf) r3 = r10                    ; R3_w=fp0 R10=fp0
328: (07) r3 += -16                   ; R3_w=fp-16
; bpf_map_update_elem(&TAPE, &idx, &v, BPF_ANY); @ wm.bpf.c:57
329: (18) r1 = 0xffff0000ccc96000     ; R1_w=map_ptr(map=TAPE,ks=4,vs=8)
331: (b7) r4 = 0                      ; R4_w=0
332: (85) call bpf_map_update_elem#2          ; R0=scalar()
333: (b7) r1 = 0                      ; R1_w=0
; __u64 g   = NAND_GATE(G4, xab, cin); @ wm.bpf.c:134
334: (63) *(u32 *)(r10 -20) = r1
mark_precise: frame0: last_idx 334 first_idx 333 subseq_idx -1 
mark_precise: frame0: regs=r1 stack= before 333: (b7) r1 = 0
335: R1_w=0 R10=fp0 fp-24=0000mmmm
335: (b7) r1 = 1                      ; R1_w=1
336: (63) *(u32 *)(r10 -24) = r1      ; R1_w=1 R10=fp0 fp-24=00001
337: (7b) *(u64 *)(r10 -32) = r1      ; R1_w=1 R10=fp0 fp-32_w=1
338: (bf) r7 = r10                    ; R7_w=fp0 R10=fp0
;  @ wm.bpf.c:0
339: (07) r7 += -20                   ; R7_w=fp-20
; __u64 g   = NAND_GATE(G4, xab, cin); @ wm.bpf.c:134
340: (18) r1 = 0xffff0000c5ddd800     ; R1_w=map_ptr(map=G4,ks=4,vs=8)
342: (bf) r2 = r7                     ; R2_w=fp-20 R7_w=fp-20
343: (85) call bpf_map_delete_elem#3          ; R0_w=scalar()
344: (bf) r8 = r10                    ; R8_w=fp0 R10=fp0
;  @ wm.bpf.c:0
345: (07) r8 += -24                   ; R8_w=fp-24
; __u64 g   = NAND_GATE(G4, xab, cin); @ wm.bpf.c:134
346: (18) r1 = 0xffff0000c5ddd800     ; R1_w=map_ptr(map=G4,ks=4,vs=8)
348: (bf) r2 = r8                     ; R2_w=fp-24 R8_w=fp-24
349: (85) call bpf_map_delete_elem#3          ; R0=scalar()
350: (b7) r1 = 2                      ; R1_w=2
351: (63) *(u32 *)(r10 -36) = r1      ; R1_w=2 R10=fp0 fp-40=mmmmmmmm
352: (bf) r2 = r10                    ; R2_w=fp0 R10=fp0
;  @ wm.bpf.c:0
353: (07) r2 += -36                   ; R2_w=fp-36
; __u64 g   = NAND_GATE(G4, xab, cin); @ wm.bpf.c:134
354: (18) r1 = 0xffff0000c5ddd800     ; R1_w=map_ptr(map=G4,ks=4,vs=8)
356: (85) call bpf_map_delete_elem#3          ; R0_w=scalar()
357: (bf) r6 = r10                    ; R6_w=fp0 R10=fp0
;  @ wm.bpf.c:0
358: (07) r6 += -32                   ; R6_w=fp-32
; __u64 g   = NAND_GATE(G4, xab, cin); @ wm.bpf.c:134
359: (18) r1 = 0xffff0000c5ddd800     ; R1_w=map_ptr(map=G4,ks=4,vs=8)
361: (bf) r2 = r7                     ; R2_w=fp-20 R7=fp-20
362: (bf) r3 = r6                     ; R3_w=fp-32 R6_w=fp-32
363: (b7) r4 = 1                      ; R4_w=1
364: (85) call bpf_map_update_elem#2          ; R0=scalar()
365: (bf) r9 = r0                     ; R0=scalar(id=22) R9_w=scalar(id=22)
366: (79) r1 = *(u64 *)(r10 -48)      ; R1_w=scalar(id=19) R10=fp0 fp-48=scalar(id=19)
367: (15) if r1 == 0x0 goto pc+1      ; R1_w=scalar(id=19,umin=1)
368: (bf) r8 = r7                     ; R7=fp-20 R8_w=fp-20
369: (61) r1 = *(u32 *)(r8 +0)        ; R1_w=0 R8_w=fp-20 fp-24=00001
370: (63) *(u32 *)(r10 -40) = r1      ; R1_w=0 R10=fp0 fp-40=mmmm0
371: (bf) r2 = r10                    ; R2_w=fp0 R10=fp0
372: (07) r2 += -40                   ; R2_w=fp-40
373: (18) r1 = 0xffff0000c5ddd800     ; R1_w=map_ptr(map=G4,ks=4,vs=8)
375: (bf) r3 = r6                     ; R3_w=fp-32 R6=fp-32
376: (b7) r4 = 0                      ; R4_w=0
377: (85) call bpf_map_update_elem#2          ; R0=scalar()
378: (bf) r8 = r0                     ; R0=scalar(id=23) R8_w=scalar(id=23)
379: (18) r1 = 0xffff0000c5ddd800     ; R1_w=map_ptr(map=G4,ks=4,vs=8)
381: (bf) r2 = r7                     ; R2_w=fp-20 R7=fp-20
382: (bf) r3 = r6                     ; R3_w=fp-32 R6=fp-32
383: (b7) r4 = 0                      ; R4_w=0
384: (85) call bpf_map_update_elem#2          ; R0_w=scalar()
385: (4f) r9 |= r8                    ; R8_w=scalar(id=23) R9_w=scalar()
386: (15) if r9 == 0x0 goto pc+20     ; R9_w=scalar(umin=1)
387: (b7) r1 = 161                    ; R1_w=161
; __u32 idx = ERR_IDX; @ wm.bpf.c:54
388: (63) *(u32 *)(r10 -4) = r1       ; R1_w=161 R10=fp0 fp-8=mmmm????
389: (bf) r2 = r10                    ; R2_w=fp0 R10=fp0
;  @ wm.bpf.c:0
390: (07) r2 += -4                    ; R2_w=fp-4
; __u64 *p = bpf_map_lookup_elem(&TAPE, &idx); @ wm.bpf.c:55
391: (18) r1 = 0xffff0000ccc96000     ; R1_w=map_ptr(map=TAPE,ks=4,vs=8)
393: (85) call bpf_map_lookup_elem#1          ; R0=map_value_or_null(id=24,map=TAPE,ks=4,vs=8)
394: (b7) r1 = 1                      ; R1_w=1
; __u64 v = (p ? *p : 0) + 1; @ wm.bpf.c:56
395: (15) if r0 == 0x0 goto pc+2      ; R0=map_value(map=TAPE,ks=4,vs=8)
396: (79) r1 = *(u64 *)(r0 +0)        ; R0=map_value(map=TAPE,ks=4,vs=8) R1_w=scalar()
397: (07) r1 += 1                     ; R1_w=scalar()
398: (7b) *(u64 *)(r10 -16) = r1      ; R1_w=scalar(id=25) R10=fp0 fp-16_w=scalar(id=25)
399: (bf) r2 = r10                    ; R2_w=fp0 R10=fp0
400: (07) r2 += -4                    ; R2_w=fp-4
401: (bf) r3 = r10                    ; R3_w=fp0 R10=fp0
402: (07) r3 += -16                   ; R3_w=fp-16
; bpf_map_update_elem(&TAPE, &idx, &v, BPF_ANY); @ wm.bpf.c:57
403: (18) r1 = 0xffff0000ccc96000     ; R1_w=map_ptr(map=TAPE,ks=4,vs=8)
405: (b7) r4 = 0                      ; R4_w=0
406: (85) call bpf_map_update_elem#2          ; R0=scalar()
407: (b7) r1 = 0                      ; R1_w=0
; __u64 h   = NAND_GATE(G5, xab, g); @ wm.bpf.c:135
408: (63) *(u32 *)(r10 -20) = r1
mark_precise: frame0: last_idx 408 first_idx 407 subseq_idx -1 
mark_precise: frame0: regs=r1 stack= before 407: (b7) r1 = 0
409: R1_w=0 R10=fp0 fp-24=0000mmmm
409: (b7) r1 = 1                      ; R1_w=1
410: (63) *(u32 *)(r10 -24) = r1      ; R1_w=1 R10=fp0 fp-24=00001
411: (7b) *(u64 *)(r10 -32) = r1      ; R1_w=1 R10=fp0 fp-32_w=1
412: (bf) r8 = r10                    ; R8_w=fp0 R10=fp0
413: (07) r8 += -20                   ; R8_w=fp-20
414: (18) r1 = 0xffff0000c5ddd000     ; R1_w=map_ptr(map=G5,ks=4,vs=8)
416: (bf) r2 = r8                     ; R2_w=fp-20 R8_w=fp-20
417: (85) call bpf_map_delete_elem#3          ; R0_w=scalar()
418: (bf) r7 = r10                    ; R7_w=fp0 R10=fp0
419: (07) r7 += -24                   ; R7_w=fp-24
420: (18) r1 = 0xffff0000c5ddd000     ; R1_w=map_ptr(map=G5,ks=4,vs=8)
422: (bf) r2 = r7                     ; R2_w=fp-24 R7_w=fp-24
423: (85) call bpf_map_delete_elem#3          ; R0=scalar()
424: (b7) r1 = 2                      ; R1_w=2
425: (63) *(u32 *)(r10 -36) = r1      ; R1_w=2 R10=fp0 fp-40=mmmmmmmm
426: (bf) r2 = r10                    ; R2_w=fp0 R10=fp0
427: (07) r2 += -36                   ; R2_w=fp-36
428: (18) r1 = 0xffff0000c5ddd000     ; R1_w=map_ptr(map=G5,ks=4,vs=8)
430: (85) call bpf_map_delete_elem#3          ; R0_w=scalar()
431: (bf) r6 = r10                    ; R6_w=fp0 R10=fp0
432: (07) r6 += -32                   ; R6_w=fp-32
433: (18) r1 = 0xffff0000c5ddd000     ; R1_w=map_ptr(map=G5,ks=4,vs=8)
435: (bf) r2 = r8                     ; R2_w=fp-20 R8=fp-20
436: (bf) r3 = r6                     ; R3_w=fp-32 R6_w=fp-32
437: (b7) r4 = 1                      ; R4_w=1
438: (85) call bpf_map_update_elem#2          ; R0=scalar()
439: (bf) r9 = r0                     ; R0=scalar(id=26) R9_w=scalar(id=26)
440: (79) r1 = *(u64 *)(r10 -48)      ; R1_w=scalar(id=19,umin=1) R10=fp0 fp-48=scalar(id=19,umin=1)
441: (15) if r1 == 0x0 goto pc+1
mark_precise: frame0: last_idx 441 first_idx 439 subseq_idx -1 
mark_precise: frame0: regs=r1 stack= before 440: (79) r1 = *(u64 *)(r10 -48)
mark_precise: frame0: regs= stack=-48 before 439: (bf) r9 = r0
mark_precise: frame0: parent state regs= stack=-48:  R0_rw=scalar() R6_w=fp-32 R7=fp-24 R8=fp-20 R9=scalar(umin=1) R10=fp0 fp-8=mmmm???? fp-16=scalar(id=25) fp-24=00001 fp-32=1 fp-40=mmmmmmmm fp-48_r=Pscalar(id=19,umin=1) fp-56=scalar(id=6) fp-64=scalar(id=3,smin=smin32=0,smax=umax=smax32=umax32=1,var_off=(0x0; 0x1)) fp-72=1
mark_precise: frame0: last_idx 438 first_idx 424 subseq_idx 439 
mark_precise: frame0: regs= stack=-48 before 438: (85) call bpf_map_update_elem#2
mark_precise: frame0: regs= stack=-48 before 437: (b7) r4 = 1
mark_precise: frame0: regs= stack=-48 before 436: (bf) r3 = r6
mark_precise: frame0: regs= stack=-48 before 435: (bf) r2 = r8
mark_precise: frame0: regs= stack=-48 before 433: (18) r1 = 0xffff0000c5ddd000
mark_precise: frame0: regs= stack=-48 before 432: (07) r6 += -32
mark_precise: frame0: regs= stack=-48 before 431: (bf) r6 = r10
mark_precise: frame0: regs= stack=-48 before 430: (85) call bpf_map_delete_elem#3
mark_precise: frame0: regs= stack=-48 before 428: (18) r1 = 0xffff0000c5ddd000
mark_precise: frame0: regs= stack=-48 before 427: (07) r2 += -36
mark_precise: frame0: regs= stack=-48 before 426: (bf) r2 = r10
mark_precise: frame0: regs= stack=-48 before 425: (63) *(u32 *)(r10 -36) = r1
mark_precise: frame0: regs= stack=-48 before 424: (b7) r1 = 2
mark_precise: frame0: parent state regs= stack=-48:  R0_w=scalar() R6=fp-32 R7_w=fp-24 R8_rw=fp-20 R9=scalar(umin=1) R10=fp0 fp-8=mmmm???? fp-16=scalar(id=25) fp-24_r=00001 fp-32_rw=1 fp-40_r=mmmm0 fp-48_r=Pscalar(id=19,umin=1) fp-56=scalar(id=6) fp-64=scalar(id=3,smin=smin32=0,smax=umax=smax32=umax32=1,var_off=(0x0; 0x1)) fp-72=1
mark_precise: frame0: last_idx 423 first_idx 407 subseq_idx 424 
mark_precise: frame0: regs= stack=-48 before 423: (85) call bpf_map_delete_elem#3
mark_precise: frame0: regs= stack=-48 before 422: (bf) r2 = r7
mark_precise: frame0: regs= stack=-48 before 420: (18) r1 = 0xffff0000c5ddd000
mark_precise: frame0: regs= stack=-48 before 419: (07) r7 += -24
mark_precise: frame0: regs= stack=-48 before 418: (bf) r7 = r10
mark_precise: frame0: regs= stack=-48 before 417: (85) call bpf_map_delete_elem#3
mark_precise: frame0: regs= stack=-48 before 416: (bf) r2 = r8
mark_precise: frame0: regs= stack=-48 before 414: (18) r1 = 0xffff0000c5ddd000
mark_precise: frame0: regs= stack=-48 before 413: (07) r8 += -20
mark_precise: frame0: regs= stack=-48 before 412: (bf) r8 = r10
mark_precise: frame0: regs= stack=-48 before 411: (7b) *(u64 *)(r10 -32) = r1
mark_precise: frame0: regs= stack=-48 before 410: (63) *(u32 *)(r10 -24) = r1
mark_precise: frame0: regs= stack=-48 before 409: (b7) r1 = 1
mark_precise: frame0: regs= stack=-48 before 408: (63) *(u32 *)(r10 -20) = r1
mark_precise: frame0: regs= stack=-48 before 407: (b7) r1 = 0
mark_precise: frame0: parent state regs= stack=-48:  R0_w=scalar() R6=fp-32 R7=fp-20 R8=scalar(id=23) R9=scalar(umin=1) R10=fp0 fp-8=mmmm???? fp-16_w=scalar(id=25) fp-24_r=00001 fp-32=1 fp-40_r=mmmm0 fp-48_r=Pscalar(id=19,umin=1) fp-56=scalar(id=6) fp-64=scalar(id=3,smin=smin32=0,smax=umax=smax32=umax32=1,var_off=(0x0; 0x1)) fp-72=1
mark_precise: frame0: last_idx 406 first_idx 394 subseq_idx 407 
mark_precise: frame0: regs= stack=-48 before 406: (85) call bpf_map_update_elem#2
mark_precise: frame0: regs= stack=-48 before 405: (b7) r4 = 0
mark_precise: frame0: regs= stack=-48 before 403: (18) r1 = 0xffff0000ccc96000
mark_precise: frame0: regs= stack=-48 before 402: (07) r3 += -16
mark_precise: frame0: regs= stack=-48 before 401: (bf) r3 = r10
mark_precise: frame0: regs= stack=-48 before 400: (07) r2 += -4
mark_precise: frame0: regs= stack=-48 before 399: (bf) r2 = r10
mark_precise: frame0: regs= stack=-48 before 398: (7b) *(u64 *)(r10 -16) = r1
mark_precise: frame0: regs= stack=-48 before 397: (07) r1 += 1
mark_precise: frame0: regs= stack=-48 before 396: (79) r1 = *(u64 *)(r0 +0)
mark_precise: frame0: regs= stack=-48 before 395: (15) if r0 == 0x0 goto pc+2
mark_precise: frame0: regs= stack=-48 before 394: (b7) r1 = 1
mark_precise: frame0: parent state regs= stack=-48:  R0_rw=map_value_or_null(id=24,map=TAPE,ks=4,vs=8) R6=fp-32 R7=fp-20 R8_w=scalar(id=23) R9_w=scalar(umin=1) R10=fp0 fp-8_r=mmmm???? fp-16=scalar(id=21) fp-24_r=00001 fp-32=1 fp-40_r=mmmm0 fp-48_r=Pscalar(id=19,umin=1) fp-56=scalar(id=6) fp-64=scalar(id=3,smin=smin32=0,smax=umax=smax32=umax32=1,var_off=(0x0; 0x1)) fp-72=1
mark_precise: frame0: last_idx 393 first_idx 378 subseq_idx 394 
mark_precise: frame0: regs= stack=-48 before 393: (85) call bpf_map_lookup_elem#1
mark_precise: frame0: regs= stack=-48 before 391: (18) r1 = 0xffff0000ccc96000
mark_precise: frame0: regs= stack=-48 before 390: (07) r2 += -4
mark_precise: frame0: regs= stack=-48 before 389: (bf) r2 = r10
mark_precise: frame0: regs= stack=-48 before 388: (63) *(u32 *)(r10 -4) = r1
mark_precise: frame0: regs= stack=-48 before 387: (b7) r1 = 161
mark_precise: frame0: regs= stack=-48 before 386: (15) if r9 == 0x0 goto pc+20
mark_precise: frame0: regs= stack=-48 before 385: (4f) r9 |= r8
mark_precise: frame0: regs= stack=-48 before 384: (85) call bpf_map_update_elem#2
mark_precise: frame0: regs= stack=-48 before 383: (b7) r4 = 0
mark_precise: frame0: regs= stack=-48 before 382: (bf) r3 = r6
mark_precise: frame0: regs= stack=-48 before 381: (bf) r2 = r7
mark_precise: frame0: regs= stack=-48 before 379: (18) r1 = 0xffff0000c5ddd800
mark_precise: frame0: regs= stack=-48 before 378: (bf) r8 = r0
mark_precise: frame0: parent state regs= stack=-48:  R0_rw=scalar() R6_r=fp-32 R7_r=fp-20 R8_w=fp-20 R9_rw=scalar(id=22) R10=fp0 fp-8_r=mmmm???? fp-16=scalar(id=21) fp-24_r=00001 fp-32_r=1 fp-40_r=mmmm0 fp-48_r=Pscalar(id=19,umin=1) fp-56=scalar(id=6) fp-64=scalar(id=3,smin=smin32=0,smax=umax=smax32=umax32=1,var_off=(0x0; 0x1)) fp-72=1
mark_precise: frame0: last_idx 377 first_idx 365 subseq_idx 378 
mark_precise: frame0: regs= stack=-48 before 377: (85) call bpf_map_update_elem#2
mark_precise: frame0: regs= stack=-48 before 376: (b7) r4 = 0
mark_precise: frame0: regs= stack=-48 before 375: (bf) r3 = r6
mark_precise: frame0: regs= stack=-48 before 373: (18) r1 = 0xffff0000c5ddd800
mark_precise: frame0: regs= stack=-48 before 372: (07) r2 += -40
mark_precise: frame0: regs= stack=-48 before 371: (bf) r2 = r10
mark_precise: frame0: regs= stack=-48 before 370: (63) *(u32 *)(r10 -40) = r1
mark_precise: frame0: regs= stack=-48 before 369: (61) r1 = *(u32 *)(r8 +0)
mark_precise: frame0: regs= stack=-48 before 368: (bf) r8 = r7
mark_precise: frame0: regs= stack=-48 before 367: (15) if r1 == 0x0 goto pc+1
mark_precise: frame0: regs=r1 stack=-48 before 366: (79) r1 = *(u64 *)(r10 -48)
mark_precise: frame0: regs= stack=-48 before 365: (bf) r9 = r0
mark_precise: frame0: parent state regs= stack=-48:  R0_rw=scalar() R6_rw=fp-32 R7_r=fp-20 R8=fp-24 R9=fp-32 R10=fp0 fp-8_r=mmmm???? fp-16=scalar(id=21) fp-24_r=00001 fp-32_r=1 fp-40_r=mmmmmmmm fp-48_r=Pscalar(id=19) fp-56=scalar(id=6) fp-64=scalar(id=3,smin=smin32=0,smax=umax=smax32=umax32=1,var_off=(0x0; 0x1)) fp-72=1
mark_precise: frame0: last_idx 364 first_idx 350 subseq_idx 365 
mark_precise: frame0: regs= stack=-48 before 364: (85) call bpf_map_update_elem#2
mark_precise: frame0: regs= stack=-48 before 363: (b7) r4 = 1
mark_precise: frame0: regs= stack=-48 before 362: (bf) r3 = r6
mark_precise: frame0: regs= stack=-48 before 361: (bf) r2 = r7
mark_precise: frame0: regs= stack=-48 before 359: (18) r1 = 0xffff0000c5ddd800
mark_precise: frame0: regs= stack=-48 before 358: (07) r6 += -32
mark_precise: frame0: regs= stack=-48 before 357: (bf) r6 = r10
mark_precise: frame0: regs= stack=-48 before 356: (85) call bpf_map_delete_elem#3
mark_precise: frame0: regs= stack=-48 before 354: (18) r1 = 0xffff0000c5ddd800
mark_precise: frame0: regs= stack=-48 before 353: (07) r2 += -36
mark_precise: frame0: regs= stack=-48 before 352: (bf) r2 = r10
mark_precise: frame0: regs= stack=-48 before 351: (63) *(u32 *)(r10 -36) = r1
mark_precise: frame0: regs= stack=-48 before 350: (b7) r1 = 2
mark_precise: frame0: parent state regs= stack=-48:  R0_w=scalar() R6=scalar(umin=1) R7_rw=fp-20 R8_w=fp-24 R9=fp-32 R10=fp0 fp-8_r=mmmm???? fp-16=scalar(id=21) fp-24_r=00001 fp-32_rw=1 fp-40_r=mmmm0 fp-48_r=Pscalar(id=19) fp-56=scalar(id=6) fp-64=scalar(id=3,smin=smin32=0,smax=umax=smax32=umax32=1,var_off=(0x0; 0x1)) fp-72=1
mark_precise: frame0: last_idx 349 first_idx 333 subseq_idx 350 
mark_precise: frame0: regs= stack=-48 before 349: (85) call bpf_map_delete_elem#3
mark_precise: frame0: regs= stack=-48 before 348: (bf) r2 = r8
mark_precise: frame0: regs= stack=-48 before 346: (18) r1 = 0xffff0000c5ddd800
mark_precise: frame0: regs= stack=-48 before 345: (07) r8 += -24
mark_precise: frame0: regs= stack=-48 before 344: (bf) r8 = r10
mark_precise: frame0: regs= stack=-48 before 343: (85) call bpf_map_delete_elem#3
mark_precise: frame0: regs= stack=-48 before 342: (bf) r2 = r7
mark_precise: frame0: regs= stack=-48 before 340: (18) r1 = 0xffff0000c5ddd800
mark_precise: frame0: regs= stack=-48 before 339: (07) r7 += -20
mark_precise: frame0: regs= stack=-48 before 338: (bf) r7 = r10
mark_precise: frame0: regs= stack=-48 before 337: (7b) *(u64 *)(r10 -32) = r1
mark_precise: frame0: regs= stack=-48 before 336: (63) *(u32 *)(r10 -24) = r1
mark_precise: frame0: regs= stack=-48 before 335: (b7) r1 = 1
mark_precise: frame0: regs= stack=-48 before 334: (63) *(u32 *)(r10 -20) = r1
mark_precise: frame0: regs= stack=-48 before 333: (b7) r1 = 0
mark_precise: frame0: parent state regs= stack=-48:  R0_w=scalar() R6=scalar(umin=1) R7=fp-20 R8=fp-20 R9=fp-32 R10=fp0 fp-8_r=mmmm???? fp-16_w=scalar(id=21) fp-24_r=00001 fp-32=1 fp-40_r=mmmm0 fp-48_r=Pscalar(id=19) fp-56=scalar(id=6) fp-64=scalar(id=3,smin=smin32=0,smax=umax=smax32=umax32=1,var_off=(0x0; 0x1)) fp-72=1
mark_precise: frame0: last_idx 332 first_idx 320 subseq_idx 333 
mark_precise: frame0: regs= stack=-48 before 332: (85) call bpf_map_update_elem#2
mark_precise: frame0: regs= stack=-48 before 331: (b7) r4 = 0
mark_precise: frame0: regs= stack=-48 before 329: (18) r1 = 0xffff0000ccc96000
mark_precise: frame0: regs= stack=-48 before 328: (07) r3 += -16
mark_precise: frame0: regs= stack=-48 before 327: (bf) r3 = r10
mark_precise: frame0: regs= stack=-48 before 326: (07) r2 += -4
mark_precise: frame0: regs= stack=-48 before 325: (bf) r2 = r10
mark_precise: frame0: regs= stack=-48 before 324: (7b) *(u64 *)(r10 -16) = r1
mark_precise: frame0: regs= stack=-48 before 323: (07) r1 += 1
mark_precise: frame0: regs= stack=-48 before 322: (79) r1 = *(u64 *)(r0 +0)
mark_precise: frame0: regs= stack=-48 before 321: (15) if r0 == 0x0 goto pc+2
mark_precise: frame0: regs= stack=-48 before 320: (b7) r1 = 1
mark_precise: frame0: parent state regs= stack=-48:  R0_rw=map_value_or_null(id=20,map=TAPE,ks=4,vs=8) R6_w=scalar(umin=1) R7=fp-20 R8=fp-20 R9=fp-32 R10=fp0 fp-8_r=mmmm???? fp-16=scalar(id=17) fp-24_r=00001 fp-32=1 fp-40_r=mmmm0 fp-48_rw=Pscalar(id=19) fp-56=scalar(id=6) fp-64=scalar(id=3,smin=smin32=0,smax=umax=smax32=umax32=1,var_off=(0x0; 0x1)) fp-72=1
mark_precise: frame0: last_idx 319 first_idx 304 subseq_idx 320 
mark_precise: frame0: regs= stack=-48 before 319: (85) call bpf_map_lookup_elem#1
mark_precise: frame0: regs= stack=-48 before 317: (18) r1 = 0xffff0000ccc96000
mark_precise: frame0: regs= stack=-48 before 316: (07) r2 += -4
mark_precise: frame0: regs= stack=-48 before 315: (bf) r2 = r10
mark_precise: frame0: regs= stack=-48 before 314: (63) *(u32 *)(r10 -4) = r1
mark_precise: frame0: regs= stack=-48 before 313: (b7) r1 = 161
mark_precise: frame0: regs= stack=-48 before 312: (15) if r6 == 0x0 goto pc+20
mark_precise: frame0: regs= stack=-48 before 311: (7b) *(u64 *)(r10 -48) = r0
mark_precise: frame0: regs=r0 stack= before 310: (85) call bpf_map_update_elem#2
441: R1_w=scalar(id=19,umin=1)
442: (bf) r7 = r8                     ; R7_w=fp-20 R8=fp-20
443: (61) r1 = *(u32 *)(r7 +0)        ; R1_w=0 R7_w=fp-20 fp-24=00001
444: (63) *(u32 *)(r10 -40) = r1      ; R1_w=0 R10=fp0 fp-40=mmmm0
445: (bf) r2 = r10                    ; R2_w=fp0 R10=fp0
446: (07) r2 += -40                   ; R2_w=fp-40
447: (18) r1 = 0xffff0000c5ddd000     ; R1_w=map_ptr(map=G5,ks=4,vs=8)
449: (bf) r3 = r6                     ; R3_w=fp-32 R6=fp-32
450: (b7) r4 = 0                      ; R4_w=0
451: (85) call bpf_map_update_elem#2          ; R0=scalar()
452: (4f) r9 |= r0                    ; R0=scalar() R9_w=scalar()
453: (18) r1 = 0xffff0000c5ddd000     ; R1_w=map_ptr(map=G5,ks=4,vs=8)
455: (bf) r2 = r8                     ; R2_w=fp-20 R8=fp-20
456: (bf) r3 = r6                     ; R3_w=fp-32 R6=fp-32
457: (b7) r4 = 0                      ; R4_w=0
458: (85) call bpf_map_update_elem#2          ; R0_w=scalar()
459: (7b) *(u64 *)(r10 -48) = r0      ; R0_w=scalar(id=27) R10=fp0 fp-48_w=scalar(id=27)
460: (15) if r9 == 0x0 goto pc+20     ; R9_w=scalar(umin=1)
461: (b7) r1 = 161                    ; R1_w=161
; __u32 idx = ERR_IDX; @ wm.bpf.c:54
462: (63) *(u32 *)(r10 -4) = r1       ; R1_w=161 R10=fp0 fp-8=mmmm????
463: (bf) r2 = r10                    ; R2_w=fp0 R10=fp0
;  @ wm.bpf.c:0
464: (07) r2 += -4                    ; R2_w=fp-4
; __u64 *p = bpf_map_lookup_elem(&TAPE, &idx); @ wm.bpf.c:55
465: (18) r1 = 0xffff0000ccc96000     ; R1_w=map_ptr(map=TAPE,ks=4,vs=8)
467: (85) call bpf_map_lookup_elem#1          ; R0=map_value_or_null(id=28,map=TAPE,ks=4,vs=8)
468: (b7) r1 = 1                      ; R1_w=1
; __u64 v = (p ? *p : 0) + 1; @ wm.bpf.c:56
469: (15) if r0 == 0x0 goto pc+2      ; R0=map_value(map=TAPE,ks=4,vs=8)
470: (79) r1 = *(u64 *)(r0 +0)        ; R0=map_value(map=TAPE,ks=4,vs=8) R1_w=scalar()
471: (07) r1 += 1                     ; R1_w=scalar()
472: (7b) *(u64 *)(r10 -16) = r1      ; R1_w=scalar(id=29) R10=fp0 fp-16_w=scalar(id=29)
473: (bf) r2 = r10                    ; R2_w=fp0 R10=fp0
474: (07) r2 += -4                    ; R2_w=fp-4
475: (bf) r3 = r10                    ; R3_w=fp0 R10=fp0
476: (07) r3 += -16                   ; R3_w=fp-16
; bpf_map_update_elem(&TAPE, &idx, &v, BPF_ANY); @ wm.bpf.c:57
477: (18) r1 = 0xffff0000ccc96000     ; R1_w=map_ptr(map=TAPE,ks=4,vs=8)
479: (b7) r4 = 0                      ; R4_w=0
480: (85) call bpf_map_update_elem#2          ; R0=scalar()
481: (b7) r1 = 0                      ; R1_w=0
; __u64 i   = NAND_GATE(G6, cin, g); @ wm.bpf.c:136
482: (63) *(u32 *)(r10 -20) = r1
mark_precise: frame0: last_idx 482 first_idx 481 subseq_idx -1 
mark_precise: frame0: regs=r1 stack= before 481: (b7) r1 = 0
483: R1_w=0 R10=fp0 fp-24=0000mmmm
483: (b7) r1 = 1                      ; R1_w=1
484: (63) *(u32 *)(r10 -24) = r1      ; R1_w=1 R10=fp0 fp-24=00001
485: (7b) *(u64 *)(r10 -32) = r1      ; R1_w=1 R10=fp0 fp-32_w=1
486: (bf) r8 = r10                    ; R8_w=fp0 R10=fp0
;  @ wm.bpf.c:0
487: (07) r8 += -20                   ; R8_w=fp-20
; __u64 i   = NAND_GATE(G6, cin, g); @ wm.bpf.c:136
488: (18) r1 = 0xffff0000c5ddf400     ; R1_w=map_ptr(map=G6,ks=4,vs=8)
490: (bf) r2 = r8                     ; R2_w=fp-20 R8_w=fp-20
491: (85) call bpf_map_delete_elem#3          ; R0_w=scalar()
492: (bf) r7 = r10                    ; R7_w=fp0 R10=fp0
;  @ wm.bpf.c:0
493: (07) r7 += -24                   ; R7_w=fp-24
; __u64 i   = NAND_GATE(G6, cin, g); @ wm.bpf.c:136
494: (18) r1 = 0xffff0000c5ddf400     ; R1_w=map_ptr(map=G6,ks=4,vs=8)
496: (bf) r2 = r7                     ; R2_w=fp-24 R7_w=fp-24
497: (85) call bpf_map_delete_elem#3          ; R0=scalar()
498: (b7) r1 = 2                      ; R1_w=2
499: (63) *(u32 *)(r10 -36) = r1      ; R1_w=2 R10=fp0 fp-40=mmmmmmmm
500: (bf) r2 = r10                    ; R2_w=fp0 R10=fp0
;  @ wm.bpf.c:0
501: (07) r2 += -36                   ; R2_w=fp-36
; __u64 i   = NAND_GATE(G6, cin, g); @ wm.bpf.c:136
502: (18) r1 = 0xffff0000c5ddf400     ; R1_w=map_ptr(map=G6,ks=4,vs=8)
504: (85) call bpf_map_delete_elem#3          ; R0_w=scalar()
505: (bf) r6 = r10                    ; R6_w=fp0 R10=fp0
;  @ wm.bpf.c:0
506: (07) r6 += -32                   ; R6_w=fp-32
; __u64 i   = NAND_GATE(G6, cin, g); @ wm.bpf.c:136
507: (18) r1 = 0xffff0000c5ddf400     ; R1_w=map_ptr(map=G6,ks=4,vs=8)
509: (bf) r2 = r8                     ; R2_w=fp-20 R8=fp-20
510: (bf) r3 = r6                     ; R3_w=fp-32 R6_w=fp-32
511: (b7) r4 = 1                      ; R4_w=1
512: (85) call bpf_map_update_elem#2          ; R0=scalar()
513: (bf) r9 = r0                     ; R0=scalar(id=30) R9_w=scalar(id=30)
514: (bf) r1 = r8                     ; R1_w=fp-20 R8=fp-20
515: (79) r2 = *(u64 *)(r10 -64)      ; R2_w=scalar(id=3,smin=smin32=0,smax=umax=smax32=umax32=1,var_off=(0x0; 0x1)) R10=fp0 fp-64=scalar(id=3,smin=smin32=0,smax=umax=smax32=umax32=1,var_off=(0x0; 0x1))
516: (15) if r2 == 0x0 goto pc+1      ; R2_w=1
517: (bf) r1 = r7                     ; R1_w=fp-24 R7=fp-24
518: (61) r1 = *(u32 *)(r1 +0)        ; R1_w=1 fp-24=00001
519: (63) *(u32 *)(r10 -40) = r1      ; R1_w=1 R10=fp0 fp-40=mmmm1
520: (bf) r2 = r10                    ; R2_w=fp0 R10=fp0
521: (07) r2 += -40                   ; R2_w=fp-40
522: (18) r1 = 0xffff0000c5ddf400     ; R1_w=map_ptr(map=G6,ks=4,vs=8)
524: (bf) r3 = r6                     ; R3_w=fp-32 R6=fp-32
525: (b7) r4 = 0                      ; R4_w=0
526: (85) call bpf_map_update_elem#2          ; R0=scalar()
527: (bf) r7 = r0                     ; R0=scalar(id=31) R7_w=scalar(id=31)
528: (18) r1 = 0xffff0000c5ddf400     ; R1_w=map_ptr(map=G6,ks=4,vs=8)
530: (bf) r2 = r8                     ; R2_w=fp-20 R8=fp-20
531: (bf) r3 = r6                     ; R3_w=fp-32 R6=fp-32
532: (b7) r4 = 0                      ; R4_w=0
533: (85) call bpf_map_update_elem#2          ; R0_w=scalar()
534: (4f) r9 |= r7                    ; R7_w=scalar(id=31) R9_w=scalar()
535: (15) if r9 == 0x0 goto pc+20     ; R9_w=scalar(umin=1)
536: (b7) r1 = 161                    ; R1_w=161
; __u32 idx = ERR_IDX; @ wm.bpf.c:54
537: (63) *(u32 *)(r10 -4) = r1       ; R1_w=161 R10=fp0 fp-8=mmmm????
538: (bf) r2 = r10                    ; R2_w=fp0 R10=fp0
;  @ wm.bpf.c:0
539: (07) r2 += -4                    ; R2_w=fp-4
; __u64 *p = bpf_map_lookup_elem(&TAPE, &idx); @ wm.bpf.c:55
540: (18) r1 = 0xffff0000ccc96000     ; R1_w=map_ptr(map=TAPE,ks=4,vs=8)
542: (85) call bpf_map_lookup_elem#1          ; R0=map_value_or_null(id=32,map=TAPE,ks=4,vs=8)
543: (b7) r1 = 1                      ; R1_w=1
; __u64 v = (p ? *p : 0) + 1; @ wm.bpf.c:56
544: (15) if r0 == 0x0 goto pc+2      ; R0=map_value(map=TAPE,ks=4,vs=8)
545: (79) r1 = *(u64 *)(r0 +0)        ; R0=map_value(map=TAPE,ks=4,vs=8) R1_w=scalar()
546: (07) r1 += 1                     ; R1_w=scalar()
547: (7b) *(u64 *)(r10 -16) = r1      ; R1_w=scalar(id=33) R10=fp0 fp-16_w=scalar(id=33)
548: (bf) r2 = r10                    ; R2_w=fp0 R10=fp0
549: (07) r2 += -4                    ; R2_w=fp-4
550: (bf) r3 = r10                    ; R3_w=fp0 R10=fp0
551: (07) r3 += -16                   ; R3_w=fp-16
; bpf_map_update_elem(&TAPE, &idx, &v, BPF_ANY); @ wm.bpf.c:57
552: (18) r1 = 0xffff0000ccc96000     ; R1_w=map_ptr(map=TAPE,ks=4,vs=8)
554: (b7) r4 = 0                      ; R4_w=0
555: (85) call bpf_map_update_elem#2          ; R0=scalar()
556: (b7) r1 = 0                      ; R1_w=0
; *sum  = NAND_GATE(G7, h, i); @ wm.bpf.c:137
557: (63) *(u32 *)(r10 -20) = r1
mark_precise: frame0: last_idx 557 first_idx 556 subseq_idx -1 
mark_precise: frame0: regs=r1 stack= before 556: (b7) r1 = 0
558: R1_w=0 R10=fp0 fp-24=0000mmmm
558: (b7) r1 = 1                      ; R1_w=1
559: (63) *(u32 *)(r10 -24) = r1      ; R1_w=1 R10=fp0 fp-24=00001
560: (7b) *(u64 *)(r10 -32) = r1      ; R1_w=1 R10=fp0 fp-32_w=1
561: (bf) r7 = r10                    ; R7_w=fp0 R10=fp0
562: (07) r7 += -20                   ; R7_w=fp-20
563: (18) r1 = 0xffff0000c40e1000     ; R1_w=map_ptr(map=G7,ks=4,vs=8)
565: (bf) r2 = r7                     ; R2_w=fp-20 R7_w=fp-20
566: (85) call bpf_map_delete_elem#3          ; R0_w=scalar()
567: (bf) r8 = r10                    ; R8_w=fp0 R10=fp0
568: (07) r8 += -24                   ; R8_w=fp-24
569: (18) r1 = 0xffff0000c40e1000     ; R1_w=map_ptr(map=G7,ks=4,vs=8)
571: (bf) r2 = r8                     ; R2_w=fp-24 R8_w=fp-24
572: (85) call bpf_map_delete_elem#3          ; R0=scalar()
573: (b7) r1 = 2                      ; R1_w=2
574: (63) *(u32 *)(r10 -36) = r1      ; R1_w=2 R10=fp0 fp-40=mmmmmmmm
575: (bf) r2 = r10                    ; R2_w=fp0 R10=fp0
576: (07) r2 += -36                   ; R2_w=fp-36
577: (18) r1 = 0xffff0000c40e1000     ; R1_w=map_ptr(map=G7,ks=4,vs=8)
579: (85) call bpf_map_delete_elem#3          ; R0_w=scalar()
580: (bf) r9 = r10                    ; R9_w=fp0 R10=fp0
581: (07) r9 += -32                   ; R9_w=fp-32
582: (18) r1 = 0xffff0000c40e1000     ; R1_w=map_ptr(map=G7,ks=4,vs=8)
584: (bf) r2 = r7                     ; R2_w=fp-20 R7=fp-20
585: (bf) r3 = r9                     ; R3_w=fp-32 R9_w=fp-32
586: (b7) r4 = 1                      ; R4_w=1
587: (85) call bpf_map_update_elem#2          ; R0=scalar()
588: (bf) r6 = r0                     ; R0=scalar(id=34) R6_w=scalar(id=34)
589: (79) r1 = *(u64 *)(r10 -48)      ; R1_w=scalar(id=27) R10=fp0 fp-48=scalar(id=27)
590: (15) if r1 == 0x0 goto pc+1      ; R1_w=scalar(id=27,umin=1)
591: (bf) r8 = r7                     ; R7=fp-20 R8_w=fp-20
592: (61) r1 = *(u32 *)(r8 +0)        ; R1_w=0 R8_w=fp-20 fp-24=00001
593: (63) *(u32 *)(r10 -40) = r1      ; R1_w=0 R10=fp0 fp-40=mmmm0
594: (bf) r2 = r10                    ; R2_w=fp0 R10=fp0
595: (07) r2 += -40                   ; R2_w=fp-40
596: (18) r1 = 0xffff0000c40e1000     ; R1_w=map_ptr(map=G7,ks=4,vs=8)
598: (bf) r3 = r9                     ; R3_w=fp-32 R9=fp-32
599: (b7) r4 = 0                      ; R4_w=0
600: (85) call bpf_map_update_elem#2          ; R0=scalar()
601: (4f) r6 |= r0                    ; R0=scalar() R6_w=scalar()
602: (18) r1 = 0xffff0000c40e1000     ; R1_w=map_ptr(map=G7,ks=4,vs=8)
604: (bf) r2 = r7                     ; R2_w=fp-20 R7=fp-20
605: (bf) r3 = r9                     ; R3_w=fp-32 R9=fp-32
606: (b7) r4 = 0                      ; R4_w=0
607: (85) call bpf_map_update_elem#2          ; R0_w=scalar()
608: (7b) *(u64 *)(r10 -48) = r0      ; R0_w=scalar(id=35) R10=fp0 fp-48_w=scalar(id=35)
609: (15) if r6 == 0x0 goto pc+20     ; R6_w=scalar(umin=1)
610: (b7) r1 = 161                    ; R1_w=161
; __u32 idx = ERR_IDX; @ wm.bpf.c:54
611: (63) *(u32 *)(r10 -4) = r1       ; R1_w=161 R10=fp0 fp-8=mmmm????
612: (bf) r2 = r10                    ; R2_w=fp0 R10=fp0
;  @ wm.bpf.c:0
613: (07) r2 += -4                    ; R2_w=fp-4
; __u64 *p = bpf_map_lookup_elem(&TAPE, &idx); @ wm.bpf.c:55
614: (18) r1 = 0xffff0000ccc96000     ; R1_w=map_ptr(map=TAPE,ks=4,vs=8)
616: (85) call bpf_map_lookup_elem#1          ; R0=map_value_or_null(id=36,map=TAPE,ks=4,vs=8)
617: (b7) r1 = 1                      ; R1_w=1
; __u64 v = (p ? *p : 0) + 1; @ wm.bpf.c:56
618: (15) if r0 == 0x0 goto pc+2      ; R0=map_value(map=TAPE,ks=4,vs=8)
619: (79) r1 = *(u64 *)(r0 +0)        ; R0=map_value(map=TAPE,ks=4,vs=8) R1_w=scalar()
620: (07) r1 += 1                     ; R1_w=scalar()
621: (7b) *(u64 *)(r10 -16) = r1      ; R1_w=scalar(id=37) R10=fp0 fp-16_w=scalar(id=37)
622: (bf) r2 = r10                    ; R2_w=fp0 R10=fp0
623: (07) r2 += -4                    ; R2_w=fp-4
624: (bf) r3 = r10                    ; R3_w=fp0 R10=fp0
625: (07) r3 += -16                   ; R3_w=fp-16
; bpf_map_update_elem(&TAPE, &idx, &v, BPF_ANY); @ wm.bpf.c:57
626: (18) r1 = 0xffff0000ccc96000     ; R1_w=map_ptr(map=TAPE,ks=4,vs=8)
628: (b7) r4 = 0                      ; R4_w=0
629: (85) call bpf_map_update_elem#2          ; R0=scalar()
630: (b7) r1 = 0                      ; R1_w=0
; *cout = NAND_GATE(G8, d, g); @ wm.bpf.c:138
631: (63) *(u32 *)(r10 -20) = r1
mark_precise: frame0: last_idx 631 first_idx 630 subseq_idx -1 
mark_precise: frame0: regs=r1 stack= before 630: (b7) r1 = 0
632: R1_w=0 R10=fp0 fp-24=0000mmmm
632: (b7) r1 = 1                      ; R1_w=1
633: (63) *(u32 *)(r10 -24) = r1      ; R1_w=1 R10=fp0 fp-24=00001
634: (7b) *(u64 *)(r10 -32) = r1      ; R1_w=1 R10=fp0 fp-32_w=1
635: (bf) r8 = r10                    ; R8_w=fp0 R10=fp0
;  @ wm.bpf.c:0
636: (07) r8 += -20                   ; R8_w=fp-20
; *cout = NAND_GATE(G8, d, g); @ wm.bpf.c:138
637: (18) r1 = 0xffff0000c40e0000     ; R1_w=map_ptr(map=G8,ks=4,vs=8)
639: (bf) r2 = r8                     ; R2_w=fp-20 R8_w=fp-20
640: (85) call bpf_map_delete_elem#3          ; R0_w=scalar()
641: (bf) r6 = r10                    ; R6_w=fp0 R10=fp0
;  @ wm.bpf.c:0
642: (07) r6 += -24                   ; R6_w=fp-24
; *cout = NAND_GATE(G8, d, g); @ wm.bpf.c:138
643: (18) r1 = 0xffff0000c40e0000     ; R1_w=map_ptr(map=G8,ks=4,vs=8)
645: (bf) r2 = r6                     ; R2_w=fp-24 R6_w=fp-24
646: (85) call bpf_map_delete_elem#3          ; R0=scalar()
647: (b7) r1 = 2                      ; R1_w=2
648: (63) *(u32 *)(r10 -36) = r1      ; R1_w=2 R10=fp0 fp-40=mmmmmmmm
649: (bf) r2 = r10                    ; R2_w=fp0 R10=fp0
;  @ wm.bpf.c:0
650: (07) r2 += -36                   ; R2_w=fp-36
; *cout = NAND_GATE(G8, d, g); @ wm.bpf.c:138
651: (18) r1 = 0xffff0000c40e0000     ; R1_w=map_ptr(map=G8,ks=4,vs=8)
653: (85) call bpf_map_delete_elem#3          ; R0_w=scalar()
654: (bf) r9 = r10                    ; R9_w=fp0 R10=fp0
;  @ wm.bpf.c:0
655: (07) r9 += -32                   ; R9_w=fp-32
; *cout = NAND_GATE(G8, d, g); @ wm.bpf.c:138
656: (18) r1 = 0xffff0000c40e0000     ; R1_w=map_ptr(map=G8,ks=4,vs=8)
658: (bf) r2 = r8                     ; R2_w=fp-20 R8=fp-20
659: (bf) r3 = r9                     ; R3_w=fp-32 R9_w=fp-32
660: (b7) r4 = 1                      ; R4_w=1
661: (85) call bpf_map_update_elem#2          ; R0=scalar()
662: (bf) r7 = r0                     ; R0=scalar(id=38) R7_w=scalar(id=38)
663: (79) r1 = *(u64 *)(r10 -56)      ; R1_w=scalar(id=6) R10=fp0 fp-56=scalar(id=6)
664: (15) if r1 == 0x0 goto pc+1      ; R1_w=scalar(id=6,umin=1)
665: (bf) r6 = r8                     ; R6_w=fp-20 R8=fp-20
666: (61) r1 = *(u32 *)(r6 +0)        ; R1_w=0 R6_w=fp-20 fp-24=00001
667: (63) *(u32 *)(r10 -40) = r1      ; R1_w=0 R10=fp0 fp-40=mmmm0
668: (bf) r2 = r10                    ; R2_w=fp0 R10=fp0
;  @ wm.bpf.c:0
669: (07) r2 += -40                   ; R2_w=fp-40
; *cout = NAND_GATE(G8, d, g); @ wm.bpf.c:138
670: (18) r1 = 0xffff0000c40e0000     ; R1_w=map_ptr(map=G8,ks=4,vs=8)
672: (bf) r3 = r9                     ; R3_w=fp-32 R9=fp-32
673: (b7) r4 = 0                      ; R4_w=0
674: (85) call bpf_map_update_elem#2          ; R0=scalar()
675: (4f) r7 |= r0                    ; R0=scalar() R7_w=scalar()
676: (18) r1 = 0xffff0000c40e0000     ; R1_w=map_ptr(map=G8,ks=4,vs=8)
678: (bf) r2 = r8                     ; R2_w=fp-20 R8=fp-20
679: (bf) r3 = r9                     ; R3_w=fp-32 R9=fp-32
680: (b7) r4 = 0                      ; R4_w=0
681: (85) call bpf_map_update_elem#2          ; R0_w=scalar()
682: (bf) r6 = r0                     ; R0_w=scalar(id=39) R6_w=scalar(id=39)
683: (15) if r7 == 0x0 goto pc+20     ; R7_w=scalar(umin=1)
684: (b7) r1 = 161                    ; R1_w=161
; __u32 idx = ERR_IDX; @ wm.bpf.c:54
685: (63) *(u32 *)(r10 -4) = r1       ; R1_w=161 R10=fp0 fp-8=mmmm????
686: (bf) r2 = r10                    ; R2_w=fp0 R10=fp0
;  @ wm.bpf.c:0
687: (07) r2 += -4                    ; R2_w=fp-4
; __u64 *p = bpf_map_lookup_elem(&TAPE, &idx); @ wm.bpf.c:55
688: (18) r1 = 0xffff0000ccc96000     ; R1_w=map_ptr(map=TAPE,ks=4,vs=8)
690: (85) call bpf_map_lookup_elem#1          ; R0=map_value_or_null(id=40,map=TAPE,ks=4,vs=8)
691: (b7) r1 = 1                      ; R1_w=1
; __u64 v = (p ? *p : 0) + 1; @ wm.bpf.c:56
692: (15) if r0 == 0x0 goto pc+2      ; R0=map_value(map=TAPE,ks=4,vs=8)
693: (79) r1 = *(u64 *)(r0 +0)        ; R0=map_value(map=TAPE,ks=4,vs=8) R1_w=scalar()
694: (07) r1 += 1                     ; R1_w=scalar()
695: (7b) *(u64 *)(r10 -16) = r1      ; R1_w=scalar(id=41) R10=fp0 fp-16_w=scalar(id=41)
696: (bf) r2 = r10                    ; R2_w=fp0 R10=fp0
697: (07) r2 += -4                    ; R2_w=fp-4
698: (bf) r3 = r10                    ; R3_w=fp0 R10=fp0
699: (07) r3 += -16                   ; R3_w=fp-16
; bpf_map_update_elem(&TAPE, &idx, &v, BPF_ANY); @ wm.bpf.c:57
700: (18) r1 = 0xffff0000ccc96000     ; R1_w=map_ptr(map=TAPE,ks=4,vs=8)
702: (b7) r4 = 0                      ; R4_w=0
703: (85) call bpf_map_update_elem#2          ; R0=scalar()
704: (b7) r1 = 4                      ; R1_w=4
705: (63) *(u32 *)(r10 -32) = r1      ; R1_w=4 R10=fp0 fp-32=mmmm4
706: (b7) r7 = 1                      ; R7_w=1
707: (b7) r1 = 1                      ; R1_w=1
; *sum  = NAND_GATE(G7, h, i); @ wm.bpf.c:137
708: (79) r2 = *(u64 *)(r10 -48)      ; R2_w=scalar(id=35) R10=fp0 fp-48=scalar(id=35)
709: (15) if r2 == 0x0 goto pc+1      ; R2_w=scalar(id=35,umin=1)
710: (b7) r1 = 0                      ; R1_w=0
; v &= 1ull; @ wm.bpf.c:48
711: (7b) *(u64 *)(r10 -16) = r1      ; R1_w=0 R10=fp0 fp-16_w=0
712: (bf) r2 = r10                    ; R2_w=fp0 R10=fp0
;  @ wm.bpf.c:0
713: (07) r2 += -32                   ; R2_w=fp-32
714: (bf) r3 = r10                    ; R3_w=fp0 R10=fp0
715: (07) r3 += -16                   ; R3_w=fp-16
; bpf_map_update_elem(&TAPE, &idx, &v, BPF_ANY); @ wm.bpf.c:49
716: (18) r1 = 0xffff0000ccc96000     ; R1_w=map_ptr(map=TAPE,ks=4,vs=8)
718: (b7) r4 = 0                      ; R4_w=0
719: (85) call bpf_map_update_elem#2
mark_precise: frame0: last_idx 719 first_idx 704 subseq_idx -1 
mark_precise: frame0: regs= stack=-32 before 718: (b7) r4 = 0
mark_precise: frame0: regs= stack=-32 before 716: (18) r1 = 0xffff0000ccc96000
mark_precise: frame0: regs= stack=-32 before 715: (07) r3 += -16
mark_precise: frame0: regs= stack=-32 before 714: (bf) r3 = r10
mark_precise: frame0: regs= stack=-32 before 713: (07) r2 += -32
mark_precise: frame0: regs= stack=-32 before 712: (bf) r2 = r10
mark_precise: frame0: regs= stack=-32 before 711: (7b) *(u64 *)(r10 -16) = r1
mark_precise: frame0: regs= stack=-32 before 710: (b7) r1 = 0
mark_precise: frame0: regs= stack=-32 before 709: (15) if r2 == 0x0 goto pc+1
mark_precise: frame0: regs= stack=-32 before 708: (79) r2 = *(u64 *)(r10 -48)
mark_precise: frame0: regs= stack=-32 before 707: (b7) r1 = 1
mark_precise: frame0: regs= stack=-32 before 706: (b7) r7 = 1
mark_precise: frame0: regs= stack=-32 before 705: (63) *(u32 *)(r10 -32) = r1
mark_precise: frame0: regs=r1 stack= before 704: (b7) r1 = 4
720: R0=scalar()
; *cout = NAND_GATE(G8, d, g); @ wm.bpf.c:138
720: (15) if r6 == 0x0 goto pc+1      ; R6=scalar(id=39,umin=1)
721: (b7) r7 = 0                      ; R7_w=0
722: (b7) r1 = 5                      ; R1_w=5
723: (63) *(u32 *)(r10 -32) = r1      ; R1_w=5 R10=fp0 fp-32=mmmm5
; v &= 1ull; @ wm.bpf.c:48
724: (7b) *(u64 *)(r10 -16) = r7      ; R7_w=0 R10=fp0 fp-16_w=0
725: (bf) r2 = r10                    ; R2_w=fp0 R10=fp0
;  @ wm.bpf.c:0
726: (07) r2 += -32                   ; R2_w=fp-32
727: (bf) r3 = r10                    ; R3_w=fp0 R10=fp0
728: (07) r3 += -16                   ; R3_w=fp-16
; bpf_map_update_elem(&TAPE, &idx, &v, BPF_ANY); @ wm.bpf.c:49
729: (18) r1 = 0xffff0000ccc96000     ; R1_w=map_ptr(map=TAPE,ks=4,vs=8)
731: (b7) r4 = 0                      ; R4_w=0
732: (85) call bpf_map_update_elem#2
mark_precise: frame0: last_idx 732 first_idx 720 subseq_idx -1 
mark_precise: frame0: regs= stack=-32 before 731: (b7) r4 = 0
mark_precise: frame0: regs= stack=-32 before 729: (18) r1 = 0xffff0000ccc96000
mark_precise: frame0: regs= stack=-32 before 728: (07) r3 += -16
mark_precise: frame0: regs= stack=-32 before 727: (bf) r3 = r10
mark_precise: frame0: regs= stack=-32 before 726: (07) r2 += -32
mark_precise: frame0: regs= stack=-32 before 725: (bf) r2 = r10
mark_precise: frame0: regs= stack=-32 before 724: (7b) *(u64 *)(r10 -16) = r7
mark_precise: frame0: regs= stack=-32 before 723: (63) *(u32 *)(r10 -32) = r1
mark_precise: frame0: regs=r1 stack= before 722: (b7) r1 = 5
733: R0=scalar()
; return 0; @ wm.bpf.c:154
733: (b7) r0 = 0                      ; R0_w=0
734: (95) exit

from 720 to 722: R0=scalar() R6=0 R7=1 R8=fp-20 R9=fp-32 R10=fp0 fp-8=mmmm???? fp-16=0 fp-24=00001 fp-32=mmmm4 fp-40=mmmm0 fp-48=scalar(id=35,umin=1) fp-56=scalar(id=6,umin=1) fp-64=1 fp-72=1
722: R0=scalar() R6=0 R7=1 R8=fp-20 R9=fp-32 R10=fp0 fp-8=mmmm???? fp-16=0 fp-24=00001 fp-32=mmmm4 fp-40=mmmm0 fp-48=scalar(id=35,umin=1) fp-56=scalar(id=6,umin=1) fp-64=1 fp-72=1
; *cout = NAND_GATE(G8, d, g); @ wm.bpf.c:138
722: (b7) r1 = 5                      ; R1_w=5
723: (63) *(u32 *)(r10 -32) = r1      ; R1_w=5 R10=fp0 fp-32=mmmm5
; v &= 1ull; @ wm.bpf.c:48
724: (7b) *(u64 *)(r10 -16) = r7      ; R7=1 R10=fp0 fp-16_w=1
725: (bf) r2 = r10                    ; R2_w=fp0 R10=fp0
;  @ wm.bpf.c:0
726: (07) r2 += -32                   ; R2_w=fp-32
727: (bf) r3 = r10                    ; R3_w=fp0 R10=fp0
728: (07) r3 += -16                   ; R3_w=fp-16
; bpf_map_update_elem(&TAPE, &idx, &v, BPF_ANY); @ wm.bpf.c:49
729: (18) r1 = 0xffff0000ccc96000     ; R1_w=map_ptr(map=TAPE,ks=4,vs=8)
731: (b7) r4 = 0                      ; R4_w=0
732: (85) call bpf_map_update_elem#2
mark_precise: frame0: last_idx 732 first_idx 720 subseq_idx -1 
mark_precise: frame0: regs= stack=-32 before 731: (b7) r4 = 0
mark_precise: frame0: regs= stack=-32 before 729: (18) r1 = 0xffff0000ccc96000
mark_precise: frame0: regs= stack=-32 before 728: (07) r3 += -16
mark_precise: frame0: regs= stack=-32 before 727: (bf) r3 = r10
mark_precise: frame0: regs= stack=-32 before 726: (07) r2 += -32
mark_precise: frame0: regs= stack=-32 before 725: (bf) r2 = r10
mark_precise: frame0: regs= stack=-32 before 724: (7b) *(u64 *)(r10 -16) = r7
mark_precise: frame0: regs= stack=-32 before 723: (63) *(u32 *)(r10 -32) = r1
mark_precise: frame0: regs=r1 stack= before 722: (b7) r1 = 5
733: safe

from 709 to 711: R0=scalar() R1=1 R2=0 R6=scalar(id=39) R7=1 R8=fp-20 R9=fp-32 R10=fp0 fp-8=mmmm???? fp-16=scalar(id=41) fp-24=00001 fp-32=mmmm4 fp-40=mmmm0 fp-48=0 fp-56=scalar(id=6,umin=1) fp-64=1 fp-72=1
711: R0=scalar() R1=1 R2=0 R6=scalar(id=39) R7=1 R8=fp-20 R9=fp-32 R10=fp0 fp-8=mmmm???? fp-16=scalar(id=41) fp-24=00001 fp-32=mmmm4 fp-40=mmmm0 fp-48=0 fp-56=scalar(id=6,umin=1) fp-64=1 fp-72=1
; v &= 1ull; @ wm.bpf.c:48
711: (7b) *(u64 *)(r10 -16) = r1      ; R1=1 R10=fp0 fp-16_w=1
712: (bf) r2 = r10                    ; R2_w=fp0 R10=fp0
;  @ wm.bpf.c:0
713: (07) r2 += -32                   ; R2_w=fp-32
714: (bf) r3 = r10                    ; R3_w=fp0 R10=fp0
715: (07) r3 += -16                   ; R3_w=fp-16
; bpf_map_update_elem(&TAPE, &idx, &v, BPF_ANY); @ wm.bpf.c:49
716: (18) r1 = 0xffff0000ccc96000     ; R1_w=map_ptr(map=TAPE,ks=4,vs=8)
718: (b7) r4 = 0                      ; R4_w=0
719: (85) call bpf_map_update_elem#2
mark_precise: frame0: last_idx 719 first_idx 711 subseq_idx -1 
mark_precise: frame0: regs= stack=-32 before 718: (b7) r4 = 0
mark_precise: frame0: regs= stack=-32 before 716: (18) r1 = 0xffff0000ccc96000
mark_precise: frame0: regs= stack=-32 before 715: (07) r3 += -16
mark_precise: frame0: regs= stack=-32 before 714: (bf) r3 = r10
mark_precise: frame0: regs= stack=-32 before 713: (07) r2 += -32
mark_precise: frame0: regs= stack=-32 before 712: (bf) r2 = r10
mark_precise: frame0: regs= stack=-32 before 711: (7b) *(u64 *)(r10 -16) = r1
mark_precise: frame0: parent state regs= stack=-32:  R0=scalar() R1_rw=1 R2_w=0 R6=scalar(id=39) R7_w=1 R8=fp-20 R9=fp-32 R10=fp0 fp-8=mmmm???? fp-16=scalar(id=41) fp-24=00001 fp-32_r=mmmmP4 fp-40=mmmm0 fp-48=0 fp-56=scalar(id=6,umin=1) fp-64=1 fp-72=1
mark_precise: frame0: last_idx 709 first_idx 704 subseq_idx 711 
mark_precise: frame0: regs= stack=-32 before 709: (15) if r2 == 0x0 goto pc+1
mark_precise: frame0: regs= stack=-32 before 708: (79) r2 = *(u64 *)(r10 -48)
mark_precise: frame0: regs= stack=-32 before 707: (b7) r1 = 1
mark_precise: frame0: regs= stack=-32 before 706: (b7) r7 = 1
mark_precise: frame0: regs= stack=-32 before 705: (63) *(u32 *)(r10 -32) = r1
mark_precise: frame0: regs=r1 stack= before 704: (b7) r1 = 4
720: safe

from 692 to 695: R0=0 R1_w=1 R6=scalar(id=39) R7=scalar(umin=1) R8=fp-20 R9=fp-32 R10=fp0 fp-8=mmmm???? fp-16=scalar(id=37) fp-24=00001 fp-32=1 fp-40=mmmm0 fp-48=scalar(id=35) fp-56=scalar(id=6,umin=1) fp-64=1 fp-72=1
695: R0=0 R1_w=1 R6=scalar(id=39) R7=scalar(umin=1) R8=fp-20 R9=fp-32 R10=fp0 fp-8=mmmm???? fp-16=scalar(id=37) fp-24=00001 fp-32=1 fp-40=mmmm0 fp-48=scalar(id=35) fp-56=scalar(id=6,umin=1) fp-64=1 fp-72=1
; __u64 v = (p ? *p : 0) + 1; @ wm.bpf.c:56
695: (7b) *(u64 *)(r10 -16) = r1      ; R1_w=1 R10=fp0 fp-16_w=1
696: (bf) r2 = r10                    ; R2_w=fp0 R10=fp0
697: (07) r2 += -4                    ; R2_w=fp-4
698: (bf) r3 = r10                    ; R3_w=fp0 R10=fp0
699: (07) r3 += -16                   ; R3_w=fp-16
; bpf_map_update_elem(&TAPE, &idx, &v, BPF_ANY); @ wm.bpf.c:57
700: (18) r1 = 0xffff0000ccc96000     ; R1_w=map_ptr(map=TAPE,ks=4,vs=8)
702: (b7) r4 = 0                      ; R4_w=0
703: (85) call bpf_map_update_elem#2
704: safe

from 683 to 704: safe

from 664 to 666: R0=scalar(id=38) R1=0 R6=fp-24 R7=scalar(id=38) R8=fp-20 R9=fp-32 R10=fp0 fp-8=mmmm???? fp-16=scalar(id=37) fp-24=00001 fp-32=1 fp-40=mmmmmmmm fp-48=scalar(id=35) fp-56=0 fp-64=1 fp-72=1
666: R0=scalar(id=38) R1=0 R6=fp-24 R7=scalar(id=38) R8=fp-20 R9=fp-32 R10=fp0 fp-8=mmmm???? fp-16=scalar(id=37) fp-24=00001 fp-32=1 fp-40=mmmmmmmm fp-48=scalar(id=35) fp-56=0 fp-64=1 fp-72=1
; *cout = NAND_GATE(G8, d, g); @ wm.bpf.c:138
666: (61) r1 = *(u32 *)(r6 +0)        ; R1_w=1 R6=fp-24 fp-24=00001
667: (63) *(u32 *)(r10 -40) = r1      ; R1_w=1 R10=fp0 fp-40=mmmm1
668: (bf) r2 = r10                    ; R2_w=fp0 R10=fp0
;  @ wm.bpf.c:0
669: (07) r2 += -40                   ; R2_w=fp-40
; *cout = NAND_GATE(G8, d, g); @ wm.bpf.c:138
670: (18) r1 = 0xffff0000c40e0000     ; R1_w=map_ptr(map=G8,ks=4,vs=8)
672: (bf) r3 = r9                     ; R3_w=fp-32 R9=fp-32
673: (b7) r4 = 0                      ; R4_w=0
674: (85) call bpf_map_update_elem#2
675: safe

from 618 to 621: R0=0 R1_w=1 R6=scalar(umin=1) R7=fp-20 R8=fp-20 R9=fp-32 R10=fp0 fp-8=mmmm???? fp-16=scalar(id=33) fp-24=00001 fp-32=1 fp-40=mmmm0 fp-48=scalar(id=35) fp-56=scalar(id=6) fp-64=1 fp-72=1
621: R0=0 R1_w=1 R6=scalar(umin=1) R7=fp-20 R8=fp-20 R9=fp-32 R10=fp0 fp-8=mmmm???? fp-16=scalar(id=33) fp-24=00001 fp-32=1 fp-40=mmmm0 fp-48=scalar(id=35) fp-56=scalar(id=6) fp-64=1 fp-72=1
; __u64 v = (p ? *p : 0) + 1; @ wm.bpf.c:56
621: (7b) *(u64 *)(r10 -16) = r1      ; R1_w=1 R10=fp0 fp-16_w=1
622: (bf) r2 = r10                    ; R2_w=fp0 R10=fp0
623: (07) r2 += -4                    ; R2_w=fp-4
624: (bf) r3 = r10                    ; R3_w=fp0 R10=fp0
625: (07) r3 += -16                   ; R3_w=fp-16
; bpf_map_update_elem(&TAPE, &idx, &v, BPF_ANY); @ wm.bpf.c:57
626: (18) r1 = 0xffff0000ccc96000     ; R1_w=map_ptr(map=TAPE,ks=4,vs=8)
628: (b7) r4 = 0                      ; R4_w=0
629: (85) call bpf_map_update_elem#2
630: safe

from 609 to 630: safe

from 590 to 592: R0=scalar(id=34) R1=0 R6=scalar(id=34) R7=fp-20 R8=fp-24 R9=fp-32 R10=fp0 fp-8=mmmm???? fp-16=scalar(id=33) fp-24=00001 fp-32=1 fp-40=mmmmmmmm fp-48=0 fp-56=scalar(id=6) fp-64=1 fp-72=1
592: R0=scalar(id=34) R1=0 R6=scalar(id=34) R7=fp-20 R8=fp-24 R9=fp-32 R10=fp0 fp-8=mmmm???? fp-16=scalar(id=33) fp-24=00001 fp-32=1 fp-40=mmmmmmmm fp-48=0 fp-56=scalar(id=6) fp-64=1 fp-72=1
; *sum  = NAND_GATE(G7, h, i); @ wm.bpf.c:137
592: (61) r1 = *(u32 *)(r8 +0)        ; R1_w=1 R8=fp-24 fp-24=00001
593: (63) *(u32 *)(r10 -40) = r1      ; R1_w=1 R10=fp0 fp-40=mmmm1
594: (bf) r2 = r10                    ; R2_w=fp0 R10=fp0
595: (07) r2 += -40                   ; R2_w=fp-40
596: (18) r1 = 0xffff0000c40e1000     ; R1_w=map_ptr(map=G7,ks=4,vs=8)
598: (bf) r3 = r9                     ; R3_w=fp-32 R9=fp-32
599: (b7) r4 = 0                      ; R4_w=0
600: (85) call bpf_map_update_elem#2
601: safe

from 544 to 547: R0=0 R1_w=1 R6=fp-32 R7=scalar(id=31) R8=fp-20 R9=scalar(umin=1) R10=fp0 fp-8=mmmm???? fp-16=scalar(id=29) fp-24=00001 fp-32=1 fp-40=mmmm1 fp-48=scalar(id=27) fp-56=scalar(id=6) fp-64=1 fp-72=1
547: R0=0 R1_w=1 R6=fp-32 R7=scalar(id=31) R8=fp-20 R9=scalar(umin=1) R10=fp0 fp-8=mmmm???? fp-16=scalar(id=29) fp-24=00001 fp-32=1 fp-40=mmmm1 fp-48=scalar(id=27) fp-56=scalar(id=6) fp-64=1 fp-72=1
; __u64 v = (p ? *p : 0) + 1; @ wm.bpf.c:56
547: (7b) *(u64 *)(r10 -16) = r1      ; R1_w=1 R10=fp0 fp-16_w=1
548: (bf) r2 = r10                    ; R2_w=fp0 R10=fp0
549: (07) r2 += -4                    ; R2_w=fp-4
550: (bf) r3 = r10                    ; R3_w=fp0 R10=fp0
551: (07) r3 += -16                   ; R3_w=fp-16
; bpf_map_update_elem(&TAPE, &idx, &v, BPF_ANY); @ wm.bpf.c:57
552: (18) r1 = 0xffff0000ccc96000     ; R1_w=map_ptr(map=TAPE,ks=4,vs=8)
554: (b7) r4 = 0                      ; R4_w=0
555: (85) call bpf_map_update_elem#2
556: safe

from 535 to 556: safe

from 516 to 518: R0=scalar(id=30) R1=fp-20 R2=0 R6=fp-32 R7=fp-24 R8=fp-20 R9=scalar(id=30) R10=fp0 fp-8=mmmm???? fp-16=scalar(id=29) fp-24=00001 fp-32=1 fp-40=mmmmmmmm fp-48=scalar(id=27) fp-56=scalar(id=6) fp-64=0 fp-72=1
518: R0=scalar(id=30) R1=fp-20 R2=0 R6=fp-32 R7=fp-24 R8=fp-20 R9=scalar(id=30) R10=fp0 fp-8=mmmm???? fp-16=scalar(id=29) fp-24=00001 fp-32=1 fp-40=mmmmmmmm fp-48=scalar(id=27) fp-56=scalar(id=6) fp-64=0 fp-72=1
; __u64 i   = NAND_GATE(G6, cin, g); @ wm.bpf.c:136
518: (61) r1 = *(u32 *)(r1 +0)        ; R1_w=0 fp-24=00001
519: (63) *(u32 *)(r10 -40) = r1      ; R1_w=0 R10=fp0 fp-40=mmmm0
520: (bf) r2 = r10                    ; R2_w=fp0 R10=fp0
521: (07) r2 += -40                   ; R2_w=fp-40
522: (18) r1 = 0xffff0000c5ddf400     ; R1_w=map_ptr(map=G6,ks=4,vs=8)
524: (bf) r3 = r6                     ; R3_w=fp-32 R6=fp-32
525: (b7) r4 = 0                      ; R4_w=0
526: (85) call bpf_map_update_elem#2
527: safe

from 469 to 472: R0=0 R1_w=1 R6=fp-32 R7=fp-20 R8=fp-20 R9=scalar(umin=1) R10=fp0 fp-8=mmmm???? fp-16=scalar(id=25) fp-24=00001 fp-32=1 fp-40=mmmm0 fp-48=scalar(id=27) fp-56=scalar(id=6) fp-64=scalar(id=3,smin=smin32=0,smax=umax=smax32=umax32=1,var_off=(0x0; 0x1)) fp-72=1
472: R0=0 R1_w=1 R6=fp-32 R7=fp-20 R8=fp-20 R9=scalar(umin=1) R10=fp0 fp-8=mmmm???? fp-16=scalar(id=25) fp-24=00001 fp-32=1 fp-40=mmmm0 fp-48=scalar(id=27) fp-56=scalar(id=6) fp-64=scalar(id=3,smin=smin32=0,smax=umax=smax32=umax32=1,var_off=(0x0; 0x1)) fp-72=1
; __u64 v = (p ? *p : 0) + 1; @ wm.bpf.c:56
472: (7b) *(u64 *)(r10 -16) = r1      ; R1_w=1 R10=fp0 fp-16_w=1
473: (bf) r2 = r10                    ; R2_w=fp0 R10=fp0
474: (07) r2 += -4                    ; R2_w=fp-4
475: (bf) r3 = r10                    ; R3_w=fp0 R10=fp0
476: (07) r3 += -16                   ; R3_w=fp-16
; bpf_map_update_elem(&TAPE, &idx, &v, BPF_ANY); @ wm.bpf.c:57
477: (18) r1 = 0xffff0000ccc96000     ; R1_w=map_ptr(map=TAPE,ks=4,vs=8)
479: (b7) r4 = 0                      ; R4_w=0
480: (85) call bpf_map_update_elem#2
481: safe

from 460 to 481: safe

from 395 to 398: R0=0 R1=1 R6=fp-32 R7=fp-20 R8=scalar(id=23) R9=scalar(umin=1) R10=fp0 fp-8=mmmm???? fp-16=scalar(id=21) fp-24=00001 fp-32=1 fp-40=mmmm0 fp-48=scalar(id=19,umin=1) fp-56=scalar(id=6) fp-64=scalar(id=3,smin=smin32=0,smax=umax=smax32=umax32=1,var_off=(0x0; 0x1)) fp-72=1
398: R0=0 R1=1 R6=fp-32 R7=fp-20 R8=scalar(id=23) R9=scalar(umin=1) R10=fp0 fp-8=mmmm???? fp-16=scalar(id=21) fp-24=00001 fp-32=1 fp-40=mmmm0 fp-48=scalar(id=19,umin=1) fp-56=scalar(id=6) fp-64=scalar(id=3,smin=smin32=0,smax=umax=smax32=umax32=1,var_off=(0x0; 0x1)) fp-72=1
; __u64 v = (p ? *p : 0) + 1; @ wm.bpf.c:56
398: (7b) *(u64 *)(r10 -16) = r1      ; R1=1 R10=fp0 fp-16_w=1
399: (bf) r2 = r10                    ; R2_w=fp0 R10=fp0
400: (07) r2 += -4                    ; R2_w=fp-4
401: (bf) r3 = r10                    ; R3_w=fp0 R10=fp0
402: (07) r3 += -16                   ; R3_w=fp-16
; bpf_map_update_elem(&TAPE, &idx, &v, BPF_ANY); @ wm.bpf.c:57
403: (18) r1 = 0xffff0000ccc96000     ; R1_w=map_ptr(map=TAPE,ks=4,vs=8)
405: (b7) r4 = 0                      ; R4_w=0
406: (85) call bpf_map_update_elem#2
frame 0: propagating fp-48
mark_precise: frame0: last_idx 407 first_idx 398 subseq_idx -1 
mark_precise: frame0: regs= stack=-48 before 406: (85) call bpf_map_update_elem#2
mark_precise: frame0: regs= stack=-48 before 405: (b7) r4 = 0
mark_precise: frame0: regs= stack=-48 before 403: (18) r1 = 0xffff0000ccc96000
mark_precise: frame0: regs= stack=-48 before 402: (07) r3 += -16
mark_precise: frame0: regs= stack=-48 before 401: (bf) r3 = r10
mark_precise: frame0: regs= stack=-48 before 400: (07) r2 += -4
mark_precise: frame0: regs= stack=-48 before 399: (bf) r2 = r10
mark_precise: frame0: regs= stack=-48 before 398: (7b) *(u64 *)(r10 -16) = r1
mark_precise: frame0: parent state regs= stack=-48:  R0=0 R1_rw=1 R6=fp-32 R7=fp-20 R8=scalar(id=23) R9=scalar(umin=1) R10=fp0 fp-8_r=mmmm???? fp-16=scalar(id=21) fp-24_r=00001 fp-32=1 fp-40_r=mmmm0 fp-48_r=Pscalar(id=19,umin=1) fp-56_r=scalar(id=6) fp-64_r=scalar(id=3,smin=smin32=0,smax=umax=smax32=umax32=1,var_off=(0x0; 0x1)) fp-72=1
mark_precise: frame0: last_idx 395 first_idx 394 subseq_idx 398 
mark_precise: frame0: regs= stack=-48 before 395: (15) if r0 == 0x0 goto pc+2
mark_precise: frame0: regs= stack=-48 before 394: (b7) r1 = 1
mark_precise: frame0: parent state regs= stack=:  R0_rw=map_value_or_null(id=24,map=TAPE,ks=4,vs=8) R6=fp-32 R7=fp-20 R8_w=scalar(id=23) R9_w=scalar(umin=1) R10=fp0 fp-8_r=mmmm???? fp-16=scalar(id=21) fp-24_r=00001 fp-32=1 fp-40_r=mmmm0 fp-48_r=Pscalar(id=19,umin=1) fp-56_r=scalar(id=6) fp-64_r=scalar(id=3,smin=smin32=0,smax=umax=smax32=umax32=1,var_off=(0x0; 0x1)) fp-72=1
407: safe
frame 0: propagating fp-48
mark_precise: frame0: last_idx 407 first_idx 378 subseq_idx -1 
mark_precise: frame0: regs= stack=-48 before 386: (15) if r9 == 0x0 goto pc+20
mark_precise: frame0: regs= stack=-48 before 385: (4f) r9 |= r8
mark_precise: frame0: regs= stack=-48 before 384: (85) call bpf_map_update_elem#2
mark_precise: frame0: regs= stack=-48 before 383: (b7) r4 = 0
mark_precise: frame0: regs= stack=-48 before 382: (bf) r3 = r6
mark_precise: frame0: regs= stack=-48 before 381: (bf) r2 = r7
mark_precise: frame0: regs= stack=-48 before 379: (18) r1 = 0xffff0000c5ddd800
mark_precise: frame0: regs= stack=-48 before 378: (bf) r8 = r0
mark_precise: frame0: parent state regs= stack=:  R0_rw=scalar() R6_r=fp-32 R7_r=fp-20 R8_w=fp-20 R9_rw=scalar(id=22) R10=fp0 fp-8_r=mmmm???? fp-16=scalar(id=21) fp-24_r=00001 fp-32_r=1 fp-40_r=mmmm0 fp-48_r=Pscalar(id=19,umin=1) fp-56_r=scalar(id=6) fp-64_r=scalar(id=3,smin=smin32=0,smax=umax=smax32=umax32=1,var_off=(0x0; 0x1)) fp-72=1

from 386 to 407: safe

from 367 to 369: R0=scalar(id=22) R1_w=0 R6=fp-32 R7=fp-20 R8=fp-24 R9_w=scalar(id=22) R10=fp0 fp-8=mmmm???? fp-16=scalar(id=21) fp-24=00001 fp-32=1 fp-40=mmmmmmmm fp-48=0 fp-56=scalar(id=6) fp-64=scalar(id=3,smin=smin32=0,smax=umax=smax32=umax32=1,var_off=(0x0; 0x1)) fp-72=1
369: R0=scalar(id=22) R1_w=0 R6=fp-32 R7=fp-20 R8=fp-24 R9_w=scalar(id=22) R10=fp0 fp-8=mmmm???? fp-16=scalar(id=21) fp-24=00001 fp-32=1 fp-40=mmmmmmmm fp-48=0 fp-56=scalar(id=6) fp-64=scalar(id=3,smin=smin32=0,smax=umax=smax32=umax32=1,var_off=(0x0; 0x1)) fp-72=1
; __u64 g   = NAND_GATE(G4, xab, cin); @ wm.bpf.c:134
369: (61) r1 = *(u32 *)(r8 +0)        ; R1_w=1 R8=fp-24 fp-24=00001
370: (63) *(u32 *)(r10 -40) = r1      ; R1_w=1 R10=fp0 fp-40=mmmm1
371: (bf) r2 = r10                    ; R2_w=fp0 R10=fp0
372: (07) r2 += -40                   ; R2_w=fp-40
373: (18) r1 = 0xffff0000c5ddd800     ; R1_w=map_ptr(map=G4,ks=4,vs=8)
375: (bf) r3 = r6                     ; R3_w=fp-32 R6=fp-32
376: (b7) r4 = 0                      ; R4_w=0
377: (85) call bpf_map_update_elem#2          ; R0=scalar()
378: (bf) r8 = r0                     ; R0=scalar(id=42) R8_w=scalar(id=42)
379: (18) r1 = 0xffff0000c5ddd800     ; R1_w=map_ptr(map=G4,ks=4,vs=8)
381: (bf) r2 = r7                     ; R2_w=fp-20 R7=fp-20
382: (bf) r3 = r6                     ; R3_w=fp-32 R6=fp-32
383: (b7) r4 = 0                      ; R4_w=0
384: (85) call bpf_map_update_elem#2          ; R0_w=scalar()
385: (4f) r9 |= r8                    ; R8_w=scalar(id=42) R9_w=scalar()
386: (15) if r9 == 0x0 goto pc+20     ; R9_w=scalar(umin=1)
387: (b7) r1 = 161                    ; R1_w=161
; __u32 idx = ERR_IDX; @ wm.bpf.c:54
388: (63) *(u32 *)(r10 -4) = r1       ; R1_w=161 R10=fp0 fp-8=mmmm????
389: (bf) r2 = r10                    ; R2_w=fp0 R10=fp0
;  @ wm.bpf.c:0
390: (07) r2 += -4                    ; R2_w=fp-4
; __u64 *p = bpf_map_lookup_elem(&TAPE, &idx); @ wm.bpf.c:55
391: (18) r1 = 0xffff0000ccc96000     ; R1_w=map_ptr(map=TAPE,ks=4,vs=8)
393: (85) call bpf_map_lookup_elem#1          ; R0=map_value_or_null(id=43,map=TAPE,ks=4,vs=8)
394: (b7) r1 = 1                      ; R1_w=1
; __u64 v = (p ? *p : 0) + 1; @ wm.bpf.c:56
395: (15) if r0 == 0x0 goto pc+2      ; R0=map_value(map=TAPE,ks=4,vs=8)
396: (79) r1 = *(u64 *)(r0 +0)        ; R0=map_value(map=TAPE,ks=4,vs=8) R1_w=scalar()
397: (07) r1 += 1                     ; R1_w=scalar()
398: (7b) *(u64 *)(r10 -16) = r1      ; R1_w=scalar(id=44) R10=fp0 fp-16_w=scalar(id=44)
399: (bf) r2 = r10                    ; R2_w=fp0 R10=fp0
400: (07) r2 += -4                    ; R2_w=fp-4
401: (bf) r3 = r10                    ; R3_w=fp0 R10=fp0
402: (07) r3 += -16                   ; R3_w=fp-16
; bpf_map_update_elem(&TAPE, &idx, &v, BPF_ANY); @ wm.bpf.c:57
403: (18) r1 = 0xffff0000ccc96000     ; R1_w=map_ptr(map=TAPE,ks=4,vs=8)
405: (b7) r4 = 0                      ; R4_w=0
406: (85) call bpf_map_update_elem#2          ; R0=scalar()
407: (b7) r1 = 0                      ; R1_w=0
; __u64 h   = NAND_GATE(G5, xab, g); @ wm.bpf.c:135
408: (63) *(u32 *)(r10 -20) = r1
mark_precise: frame0: last_idx 408 first_idx 407 subseq_idx -1 
mark_precise: frame0: regs=r1 stack= before 407: (b7) r1 = 0
409: R1_w=0 R10=fp0 fp-24=0000mmmm
409: (b7) r1 = 1                      ; R1_w=1
410: (63) *(u32 *)(r10 -24) = r1      ; R1_w=1 R10=fp0 fp-24=00001
411: (7b) *(u64 *)(r10 -32) = r1      ; R1_w=1 R10=fp0 fp-32_w=1
412: (bf) r8 = r10                    ; R8_w=fp0 R10=fp0
413: (07) r8 += -20                   ; R8_w=fp-20
414: (18) r1 = 0xffff0000c5ddd000     ; R1_w=map_ptr(map=G5,ks=4,vs=8)
416: (bf) r2 = r8                     ; R2_w=fp-20 R8_w=fp-20
417: (85) call bpf_map_delete_elem#3          ; R0_w=scalar()
418: (bf) r7 = r10                    ; R7_w=fp0 R10=fp0
419: (07) r7 += -24                   ; R7_w=fp-24
420: (18) r1 = 0xffff0000c5ddd000     ; R1_w=map_ptr(map=G5,ks=4,vs=8)
422: (bf) r2 = r7                     ; R2_w=fp-24 R7_w=fp-24
423: (85) call bpf_map_delete_elem#3          ; R0=scalar()
424: (b7) r1 = 2                      ; R1_w=2
425: (63) *(u32 *)(r10 -36) = r1      ; R1_w=2 R10=fp0 fp-40=mmmmmmmm
426: (bf) r2 = r10                    ; R2_w=fp0 R10=fp0
427: (07) r2 += -36                   ; R2_w=fp-36
428: (18) r1 = 0xffff0000c5ddd000     ; R1_w=map_ptr(map=G5,ks=4,vs=8)
430: (85) call bpf_map_delete_elem#3          ; R0_w=scalar()
431: (bf) r6 = r10                    ; R6_w=fp0 R10=fp0
432: (07) r6 += -32                   ; R6_w=fp-32
433: (18) r1 = 0xffff0000c5ddd000     ; R1_w=map_ptr(map=G5,ks=4,vs=8)
435: (bf) r2 = r8                     ; R2_w=fp-20 R8=fp-20
436: (bf) r3 = r6                     ; R3_w=fp-32 R6_w=fp-32
437: (b7) r4 = 1                      ; R4_w=1
438: (85) call bpf_map_update_elem#2          ; R0=scalar()
439: (bf) r9 = r0                     ; R0=scalar(id=45) R9_w=scalar(id=45)
440: (79) r1 = *(u64 *)(r10 -48)      ; R1_w=0 R10=fp0 fp-48=0
441: (15) if r1 == 0x0 goto pc+1
mark_precise: frame0: last_idx 441 first_idx 439 subseq_idx -1 
mark_precise: frame0: regs=r1 stack= before 440: (79) r1 = *(u64 *)(r10 -48)
mark_precise: frame0: regs= stack=-48 before 439: (bf) r9 = r0
mark_precise: frame0: parent state regs= stack=-48:  R0_rw=scalar() R6_w=fp-32 R7=fp-24 R8=fp-20 R9=scalar(umin=1) R10=fp0 fp-8=mmmm???? fp-16=scalar(id=44) fp-24=00001 fp-32=1 fp-40=mmmmmmmm fp-48_r=P0 fp-56=scalar(id=6) fp-64=scalar(id=3,smin=smin32=0,smax=umax=smax32=umax32=1,var_off=(0x0; 0x1)) fp-72=1
mark_precise: frame0: last_idx 438 first_idx 424 subseq_idx 439 
mark_precise: frame0: regs= stack=-48 before 438: (85) call bpf_map_update_elem#2
mark_precise: frame0: regs= stack=-48 before 437: (b7) r4 = 1
mark_precise: frame0: regs= stack=-48 before 436: (bf) r3 = r6
mark_precise: frame0: regs= stack=-48 before 435: (bf) r2 = r8
mark_precise: frame0: regs= stack=-48 before 433: (18) r1 = 0xffff0000c5ddd000
mark_precise: frame0: regs= stack=-48 before 432: (07) r6 += -32
mark_precise: frame0: regs= stack=-48 before 431: (bf) r6 = r10
mark_precise: frame0: regs= stack=-48 before 430: (85) call bpf_map_delete_elem#3
mark_precise: frame0: regs= stack=-48 before 428: (18) r1 = 0xffff0000c5ddd000
mark_precise: frame0: regs= stack=-48 before 427: (07) r2 += -36
mark_precise: frame0: regs= stack=-48 before 426: (bf) r2 = r10
mark_precise: frame0: regs= stack=-48 before 425: (63) *(u32 *)(r10 -36) = r1
mark_precise: frame0: regs= stack=-48 before 424: (b7) r1 = 2
mark_precise: frame0: parent state regs= stack=-48:  R0_w=scalar() R6=fp-32 R7_w=fp-24 R8_rw=fp-20 R9=scalar(umin=1) R10=fp0 fp-8=mmmm???? fp-16=scalar(id=44) fp-24_r=00001 fp-32_rw=1 fp-40_r=mmmm1 fp-48_r=P0 fp-56=scalar(id=6) fp-64=scalar(id=3,smin=smin32=0,smax=umax=smax32=umax32=1,var_off=(0x0; 0x1)) fp-72=1
mark_precise: frame0: last_idx 423 first_idx 407 subseq_idx 424 
mark_precise: frame0: regs= stack=-48 before 423: (85) call bpf_map_delete_elem#3
mark_precise: frame0: regs= stack=-48 before 422: (bf) r2 = r7
mark_precise: frame0: regs= stack=-48 before 420: (18) r1 = 0xffff0000c5ddd000
mark_precise: frame0: regs= stack=-48 before 419: (07) r7 += -24
mark_precise: frame0: regs= stack=-48 before 418: (bf) r7 = r10
mark_precise: frame0: regs= stack=-48 before 417: (85) call bpf_map_delete_elem#3
mark_precise: frame0: regs= stack=-48 before 416: (bf) r2 = r8
mark_precise: frame0: regs= stack=-48 before 414: (18) r1 = 0xffff0000c5ddd000
mark_precise: frame0: regs= stack=-48 before 413: (07) r8 += -20
mark_precise: frame0: regs= stack=-48 before 412: (bf) r8 = r10
mark_precise: frame0: regs= stack=-48 before 411: (7b) *(u64 *)(r10 -32) = r1
mark_precise: frame0: regs= stack=-48 before 410: (63) *(u32 *)(r10 -24) = r1
mark_precise: frame0: regs= stack=-48 before 409: (b7) r1 = 1
mark_precise: frame0: regs= stack=-48 before 408: (63) *(u32 *)(r10 -20) = r1
mark_precise: frame0: regs= stack=-48 before 407: (b7) r1 = 0
mark_precise: frame0: parent state regs= stack=-48:  R0_w=scalar() R6=fp-32 R7=fp-20 R8=scalar(id=42) R9=scalar(umin=1) R10=fp0 fp-8=mmmm???? fp-16_w=scalar(id=44) fp-24_r=00001 fp-32=1 fp-40_r=mmmm1 fp-48_r=P0 fp-56=scalar(id=6) fp-64=scalar(id=3,smin=smin32=0,smax=umax=smax32=umax32=1,var_off=(0x0; 0x1)) fp-72=1
mark_precise: frame0: last_idx 406 first_idx 394 subseq_idx 407 
mark_precise: frame0: regs= stack=-48 before 406: (85) call bpf_map_update_elem#2
mark_precise: frame0: regs= stack=-48 before 405: (b7) r4 = 0
mark_precise: frame0: regs= stack=-48 before 403: (18) r1 = 0xffff0000ccc96000
mark_precise: frame0: regs= stack=-48 before 402: (07) r3 += -16
mark_precise: frame0: regs= stack=-48 before 401: (bf) r3 = r10
mark_precise: frame0: regs= stack=-48 before 400: (07) r2 += -4
mark_precise: frame0: regs= stack=-48 before 399: (bf) r2 = r10
mark_precise: frame0: regs= stack=-48 before 398: (7b) *(u64 *)(r10 -16) = r1
mark_precise: frame0: regs= stack=-48 before 397: (07) r1 += 1
mark_precise: frame0: regs= stack=-48 before 396: (79) r1 = *(u64 *)(r0 +0)
mark_precise: frame0: regs= stack=-48 before 395: (15) if r0 == 0x0 goto pc+2
mark_precise: frame0: regs= stack=-48 before 394: (b7) r1 = 1
mark_precise: frame0: parent state regs= stack=-48:  R0_rw=map_value_or_null(id=43,map=TAPE,ks=4,vs=8) R6=fp-32 R7=fp-20 R8_w=scalar(id=42) R9_w=scalar(umin=1) R10=fp0 fp-8_r=mmmm???? fp-16=scalar(id=21) fp-24_r=00001 fp-32=1 fp-40_r=mmmm1 fp-48_r=P0 fp-56=scalar(id=6) fp-64=scalar(id=3,smin=smin32=0,smax=umax=smax32=umax32=1,var_off=(0x0; 0x1)) fp-72=1
mark_precise: frame0: last_idx 393 first_idx 378 subseq_idx 394 
mark_precise: frame0: regs= stack=-48 before 393: (85) call bpf_map_lookup_elem#1
mark_precise: frame0: regs= stack=-48 before 391: (18) r1 = 0xffff0000ccc96000
mark_precise: frame0: regs= stack=-48 before 390: (07) r2 += -4
mark_precise: frame0: regs= stack=-48 before 389: (bf) r2 = r10
mark_precise: frame0: regs= stack=-48 before 388: (63) *(u32 *)(r10 -4) = r1
mark_precise: frame0: regs= stack=-48 before 387: (b7) r1 = 161
mark_precise: frame0: regs= stack=-48 before 386: (15) if r9 == 0x0 goto pc+20
mark_precise: frame0: regs= stack=-48 before 385: (4f) r9 |= r8
mark_precise: frame0: regs= stack=-48 before 384: (85) call bpf_map_update_elem#2
mark_precise: frame0: regs= stack=-48 before 383: (b7) r4 = 0
mark_precise: frame0: regs= stack=-48 before 382: (bf) r3 = r6
mark_precise: frame0: regs= stack=-48 before 381: (bf) r2 = r7
mark_precise: frame0: regs= stack=-48 before 379: (18) r1 = 0xffff0000c5ddd800
mark_precise: frame0: regs= stack=-48 before 378: (bf) r8 = r0
mark_precise: frame0: parent state regs= stack=-48:  R0_rw=scalar() R6_r=fp-32 R7_r=fp-20 R8=fp-24 R9_rw=scalar(id=22) R10=fp0 fp-8_r=mmmm???? fp-16=scalar(id=21) fp-24_r=00001 fp-32_r=1 fp-40_r=mmmm1 fp-48_r=P0 fp-56=scalar(id=6) fp-64=scalar(id=3,smin=smin32=0,smax=umax=smax32=umax32=1,var_off=(0x0; 0x1)) fp-72=1
mark_precise: frame0: last_idx 377 first_idx 365 subseq_idx 378 
mark_precise: frame0: regs= stack=-48 before 377: (85) call bpf_map_update_elem#2
mark_precise: frame0: regs= stack=-48 before 376: (b7) r4 = 0
mark_precise: frame0: regs= stack=-48 before 375: (bf) r3 = r6
mark_precise: frame0: regs= stack=-48 before 373: (18) r1 = 0xffff0000c5ddd800
mark_precise: frame0: regs= stack=-48 before 372: (07) r2 += -40
mark_precise: frame0: regs= stack=-48 before 371: (bf) r2 = r10
mark_precise: frame0: regs= stack=-48 before 370: (63) *(u32 *)(r10 -40) = r1
mark_precise: frame0: regs= stack=-48 before 369: (61) r1 = *(u32 *)(r8 +0)
mark_precise: frame0: regs= stack=-48 before 367: (15) if r1 == 0x0 goto pc+1
mark_precise: frame0: regs=r1 stack=-48 before 366: (79) r1 = *(u64 *)(r10 -48)
mark_precise: frame0: regs= stack=-48 before 365: (bf) r9 = r0
mark_precise: frame0: parent state regs= stack=:  R0_rw=scalar() R6_rw=fp-32 R7_r=fp-20 R8_r=fp-24 R9=fp-32 R10=fp0 fp-8_r=mmmm???? fp-16=scalar(id=21) fp-24_r=00001 fp-32_r=1 fp-40_r=mmmmmmmm fp-48_r=Pscalar(id=19) fp-56_r=scalar(id=6) fp-64_r=scalar(id=3,smin=smin32=0,smax=umax=smax32=umax32=1,var_off=(0x0; 0x1)) fp-72=1
441: R1_w=0
443: (61) r1 = *(u32 *)(r7 +0)        ; R1_w=1 R7=fp-24 fp-24=00001
444: (63) *(u32 *)(r10 -40) = r1      ; R1_w=1 R10=fp0 fp-40=mmmm1
445: (bf) r2 = r10                    ; R2_w=fp0 R10=fp0
446: (07) r2 += -40                   ; R2_w=fp-40
447: (18) r1 = 0xffff0000c5ddd000     ; R1_w=map_ptr(map=G5,ks=4,vs=8)
449: (bf) r3 = r6                     ; R3_w=fp-32 R6=fp-32
450: (b7) r4 = 0                      ; R4_w=0
451: (85) call bpf_map_update_elem#2
452: safe

from 395 to 398: R0=0 R1=1 R6=fp-32 R7=fp-20 R8=scalar(id=42) R9=scalar(umin=1) R10=fp0 fp-8=mmmm???? fp-16=scalar(id=21) fp-24=00001 fp-32=1 fp-40=mmmm1 fp-48=0 fp-56=scalar(id=6) fp-64=scalar(id=3,smin=smin32=0,smax=umax=smax32=umax32=1,var_off=(0x0; 0x1)) fp-72=1
398: R0=0 R1=1 R6=fp-32 R7=fp-20 R8=scalar(id=42) R9=scalar(umin=1) R10=fp0 fp-8=mmmm???? fp-16=scalar(id=21) fp-24=00001 fp-32=1 fp-40=mmmm1 fp-48=0 fp-56=scalar(id=6) fp-64=scalar(id=3,smin=smin32=0,smax=umax=smax32=umax32=1,var_off=(0x0; 0x1)) fp-72=1
; __u64 v = (p ? *p : 0) + 1; @ wm.bpf.c:56
398: (7b) *(u64 *)(r10 -16) = r1      ; R1=1 R10=fp0 fp-16_w=1
399: (bf) r2 = r10                    ; R2_w=fp0 R10=fp0
400: (07) r2 += -4                    ; R2_w=fp-4
401: (bf) r3 = r10                    ; R3_w=fp0 R10=fp0
402: (07) r3 += -16                   ; R3_w=fp-16
; bpf_map_update_elem(&TAPE, &idx, &v, BPF_ANY); @ wm.bpf.c:57
403: (18) r1 = 0xffff0000ccc96000     ; R1_w=map_ptr(map=TAPE,ks=4,vs=8)
405: (b7) r4 = 0                      ; R4_w=0
406: (85) call bpf_map_update_elem#2
frame 0: propagating fp-48
mark_precise: frame0: last_idx 407 first_idx 398 subseq_idx -1 
mark_precise: frame0: regs= stack=-48 before 406: (85) call bpf_map_update_elem#2
mark_precise: frame0: regs= stack=-48 before 405: (b7) r4 = 0
mark_precise: frame0: regs= stack=-48 before 403: (18) r1 = 0xffff0000ccc96000
mark_precise: frame0: regs= stack=-48 before 402: (07) r3 += -16
mark_precise: frame0: regs= stack=-48 before 401: (bf) r3 = r10
mark_precise: frame0: regs= stack=-48 before 400: (07) r2 += -4
mark_precise: frame0: regs= stack=-48 before 399: (bf) r2 = r10
mark_precise: frame0: regs= stack=-48 before 398: (7b) *(u64 *)(r10 -16) = r1
mark_precise: frame0: parent state regs= stack=-48:  R0=0 R1_rw=1 R6=fp-32 R7=fp-20 R8=scalar(id=42) R9=scalar(umin=1) R10=fp0 fp-8_r=mmmm???? fp-16=scalar(id=21) fp-24_r=00001 fp-32=1 fp-40_r=mmmm1 fp-48_r=P0 fp-56_r=scalar(id=6) fp-64_r=scalar(id=3,smin=smin32=0,smax=umax=smax32=umax32=1,var_off=(0x0; 0x1)) fp-72=1
mark_precise: frame0: last_idx 395 first_idx 394 subseq_idx 398 
mark_precise: frame0: regs= stack=-48 before 395: (15) if r0 == 0x0 goto pc+2
mark_precise: frame0: regs= stack=-48 before 394: (b7) r1 = 1
mark_precise: frame0: parent state regs= stack=:  R0_rw=map_value_or_null(id=43,map=TAPE,ks=4,vs=8) R6=fp-32 R7=fp-20 R8_w=scalar(id=42) R9_w=scalar(umin=1) R10=fp0 fp-8_r=mmmm???? fp-16=scalar(id=21) fp-24_r=00001 fp-32=1 fp-40_r=mmmm1 fp-48_r=P0 fp-56_r=scalar(id=6) fp-64_r=scalar(id=3,smin=smin32=0,smax=umax=smax32=umax32=1,var_off=(0x0; 0x1)) fp-72=1
407: safe
frame 0: propagating fp-48
mark_precise: frame0: last_idx 407 first_idx 378 subseq_idx -1 
mark_precise: frame0: regs= stack=-48 before 386: (15) if r9 == 0x0 goto pc+20
mark_precise: frame0: regs= stack=-48 before 385: (4f) r9 |= r8
mark_precise: frame0: regs= stack=-48 before 384: (85) call bpf_map_update_elem#2
mark_precise: frame0: regs= stack=-48 before 383: (b7) r4 = 0
mark_precise: frame0: regs= stack=-48 before 382: (bf) r3 = r6
mark_precise: frame0: regs= stack=-48 before 381: (bf) r2 = r7
mark_precise: frame0: regs= stack=-48 before 379: (18) r1 = 0xffff0000c5ddd800
mark_precise: frame0: regs= stack=-48 before 378: (bf) r8 = r0
mark_precise: frame0: parent state regs= stack=:  R0_rw=scalar() R6_r=fp-32 R7_r=fp-20 R8=fp-24 R9_rw=scalar(id=22) R10=fp0 fp-8_r=mmmm???? fp-16=scalar(id=21) fp-24_r=00001 fp-32_r=1 fp-40_r=mmmm1 fp-48_r=P0 fp-56_r=scalar(id=6) fp-64_r=scalar(id=3,smin=smin32=0,smax=umax=smax32=umax32=1,var_off=(0x0; 0x1)) fp-72=1

from 386 to 407: safe

from 321 to 324: R0=0 R1_w=1 R6=scalar(umin=1) R7=fp-20 R8=fp-20 R9=fp-32 R10=fp0 fp-8=mmmm???? fp-16=scalar(id=17) fp-24=00001 fp-32=1 fp-40=mmmm0 fp-48=scalar(id=19) fp-56=scalar(id=6) fp-64=scalar(id=3,smin=smin32=0,smax=umax=smax32=umax32=1,var_off=(0x0; 0x1)) fp-72=1
324: R0=0 R1_w=1 R6=scalar(umin=1) R7=fp-20 R8=fp-20 R9=fp-32 R10=fp0 fp-8=mmmm???? fp-16=scalar(id=17) fp-24=00001 fp-32=1 fp-40=mmmm0 fp-48=scalar(id=19) fp-56=scalar(id=6) fp-64=scalar(id=3,smin=smin32=0,smax=umax=smax32=umax32=1,var_off=(0x0; 0x1)) fp-72=1
; __u64 v = (p ? *p : 0) + 1; @ wm.bpf.c:56
324: (7b) *(u64 *)(r10 -16) = r1      ; R1_w=1 R10=fp0 fp-16_w=1
325: (bf) r2 = r10                    ; R2_w=fp0 R10=fp0
326: (07) r2 += -4                    ; R2_w=fp-4
327: (bf) r3 = r10                    ; R3_w=fp0 R10=fp0
328: (07) r3 += -16                   ; R3_w=fp-16
; bpf_map_update_elem(&TAPE, &idx, &v, BPF_ANY); @ wm.bpf.c:57
329: (18) r1 = 0xffff0000ccc96000     ; R1_w=map_ptr(map=TAPE,ks=4,vs=8)
331: (b7) r4 = 0                      ; R4_w=0
332: (85) call bpf_map_update_elem#2
frame 0: propagating fp-48
mark_precise: frame0: last_idx 333 first_idx 320 subseq_idx -1 
mark_precise: frame0: regs= stack=-48 before 332: (85) call bpf_map_update_elem#2
mark_precise: frame0: regs= stack=-48 before 331: (b7) r4 = 0
mark_precise: frame0: regs= stack=-48 before 329: (18) r1 = 0xffff0000ccc96000
mark_precise: frame0: regs= stack=-48 before 328: (07) r3 += -16
mark_precise: frame0: regs= stack=-48 before 327: (bf) r3 = r10
mark_precise: frame0: regs= stack=-48 before 326: (07) r2 += -4
mark_precise: frame0: regs= stack=-48 before 325: (bf) r2 = r10
mark_precise: frame0: regs= stack=-48 before 324: (7b) *(u64 *)(r10 -16) = r1
mark_precise: frame0: regs= stack=-48 before 321: (15) if r0 == 0x0 goto pc+2
mark_precise: frame0: regs= stack=-48 before 320: (b7) r1 = 1
mark_precise: frame0: parent state regs= stack=:  R0_rw=map_value_or_null(id=20,map=TAPE,ks=4,vs=8) R6_w=scalar(umin=1) R7=fp-20 R8=fp-20 R9=fp-32 R10=fp0 fp-8_r=mmmm???? fp-16=scalar(id=17) fp-24_r=00001 fp-32=1 fp-40_r=mmmm0 fp-48_rw=Pscalar(id=19) fp-56_r=scalar(id=6) fp-64_r=scalar(id=3,smin=smin32=0,smax=umax=smax32=umax32=1,var_off=(0x0; 0x1)) fp-72=1
333: safe
frame 0: propagating fp-48
mark_precise: frame0: last_idx 333 first_idx 304 subseq_idx -1 
mark_precise: frame0: regs= stack=-48 before 312: (15) if r6 == 0x0 goto pc+20
mark_precise: frame0: regs= stack=-48 before 311: (7b) *(u64 *)(r10 -48) = r0
mark_precise: frame0: regs=r0 stack= before 310: (85) call bpf_map_update_elem#2

from 312 to 333: safe

from 293 to 295: R0=scalar(id=18) R1=0 R6=scalar(id=18) R7=fp-20 R8=fp-24 R9=fp-32 R10=fp0 fp-8=mmmm???? fp-16=scalar(id=17) fp-24=00001 fp-32=1 fp-40=mmmmmmmm fp-48=0 fp-56=scalar(id=6) fp-64=scalar(id=3,smin=smin32=0,smax=umax=smax32=umax32=1,var_off=(0x0; 0x1)) fp-72=1
295: R0=scalar(id=18) R1=0 R6=scalar(id=18) R7=fp-20 R8=fp-24 R9=fp-32 R10=fp0 fp-8=mmmm???? fp-16=scalar(id=17) fp-24=00001 fp-32=1 fp-40=mmmmmmmm fp-48=0 fp-56=scalar(id=6) fp-64=scalar(id=3,smin=smin32=0,smax=umax=smax32=umax32=1,var_off=(0x0; 0x1)) fp-72=1
; __u64 xab = NAND_GATE(G3, e, f); @ wm.bpf.c:133
295: (61) r1 = *(u32 *)(r8 +0)        ; R1_w=1 R8=fp-24 fp-24=00001
296: (63) *(u32 *)(r10 -40) = r1      ; R1_w=1 R10=fp0 fp-40=mmmm1
297: (bf) r2 = r10                    ; R2_w=fp0 R10=fp0
298: (07) r2 += -40                   ; R2_w=fp-40
299: (18) r1 = 0xffff0000c8517c00     ; R1_w=map_ptr(map=G3,ks=4,vs=8)
301: (bf) r3 = r9                     ; R3_w=fp-32 R9=fp-32
302: (b7) r4 = 0                      ; R4_w=0
303: (85) call bpf_map_update_elem#2
304: safe

from 247 to 250: R0=0 R1_w=1 R6=fp-32 R7=scalar(id=15) R8=fp-20 R9=scalar(umin=1) R10=fp0 fp-8=mmmm???? fp-16=scalar(id=13) fp-24=00001 fp-32=1 fp-40=mmmm1 fp-48=scalar(id=11) fp-56=scalar(id=6) fp-64=scalar(id=3,smin=smin32=0,smax=umax=smax32=umax32=1,var_off=(0x0; 0x1)) fp-72=1
250: R0=0 R1_w=1 R6=fp-32 R7=scalar(id=15) R8=fp-20 R9=scalar(umin=1) R10=fp0 fp-8=mmmm???? fp-16=scalar(id=13) fp-24=00001 fp-32=1 fp-40=mmmm1 fp-48=scalar(id=11) fp-56=scalar(id=6) fp-64=scalar(id=3,smin=smin32=0,smax=umax=smax32=umax32=1,var_off=(0x0; 0x1)) fp-72=1
; __u64 v = (p ? *p : 0) + 1; @ wm.bpf.c:56
250: (7b) *(u64 *)(r10 -16) = r1      ; R1_w=1 R10=fp0 fp-16_w=1
251: (bf) r2 = r10                    ; R2_w=fp0 R10=fp0
252: (07) r2 += -4                    ; R2_w=fp-4
253: (bf) r3 = r10                    ; R3_w=fp0 R10=fp0
254: (07) r3 += -16                   ; R3_w=fp-16
; bpf_map_update_elem(&TAPE, &idx, &v, BPF_ANY); @ wm.bpf.c:57
255: (18) r1 = 0xffff0000ccc96000     ; R1_w=map_ptr(map=TAPE,ks=4,vs=8)
257: (b7) r4 = 0                      ; R4_w=0
258: (85) call bpf_map_update_elem#2
259: safe

from 238 to 259: safe

from 219 to 221: R0=scalar(id=14) R1=fp-20 R2=0 R6=fp-32 R7=fp-24 R8=fp-20 R9=scalar(id=14) R10=fp0 fp-8=mmmm???? fp-16=scalar(id=13) fp-24=00001 fp-32=1 fp-40=mmmmmmmm fp-48=scalar(id=11) fp-56=scalar(id=6) fp-64=scalar(id=3,smin=smin32=0,smax=umax=smax32=umax32=1,var_off=(0x0; 0x1)) fp-72=0
221: R0=scalar(id=14) R1=fp-20 R2=0 R6=fp-32 R7=fp-24 R8=fp-20 R9=scalar(id=14) R10=fp0 fp-8=mmmm???? fp-16=scalar(id=13) fp-24=00001 fp-32=1 fp-40=mmmmmmmm fp-48=scalar(id=11) fp-56=scalar(id=6) fp-64=scalar(id=3,smin=smin32=0,smax=umax=smax32=umax32=1,var_off=(0x0; 0x1)) fp-72=0
; __u64 f   = NAND_GATE(G2, b, d); @ wm.bpf.c:132
221: (61) r1 = *(u32 *)(r1 +0)        ; R1_w=0 fp-24=00001
222: (63) *(u32 *)(r10 -40) = r1      ; R1_w=0 R10=fp0 fp-40=mmmm0
223: (bf) r2 = r10                    ; R2_w=fp0 R10=fp0
224: (07) r2 += -40                   ; R2_w=fp-40
225: (18) r1 = 0xffff0000c8516c00     ; R1_w=map_ptr(map=G2,ks=4,vs=8)
227: (bf) r3 = r6                     ; R3_w=fp-32 R6=fp-32
228: (b7) r4 = 0                      ; R4_w=0
229: (85) call bpf_map_update_elem#2
230: safe

from 173 to 176: R0=0 R1_w=1 R6=0 R7=fp-20 R8=fp-32 R9=scalar(umin=1) R10=fp0 fp-8=mmmm???? fp-16=scalar(id=8) fp-24=00001 fp-32=1 fp-40=mmmmscalar(id=10,smin=smin32=0,smax=umax=smax32=umax32=1,var_off=(0x0; 0x1)) fp-48=scalar(id=11) fp-56=scalar(id=6) fp-64=scalar(id=3,smin=smin32=0,smax=umax=smax32=umax32=1,var_off=(0x0; 0x1)) fp-72=scalar(id=2,smin=smin32=0,smax=umax=smax32=umax32=1,var_off=(0x0; 0x1))
176: R0=0 R1_w=1 R6=0 R7=fp-20 R8=fp-32 R9=scalar(umin=1) R10=fp0 fp-8=mmmm???? fp-16=scalar(id=8) fp-24=00001 fp-32=1 fp-40=mmmmscalar(id=10,smin=smin32=0,smax=umax=smax32=umax32=1,var_off=(0x0; 0x1)) fp-48=scalar(id=11) fp-56=scalar(id=6) fp-64=scalar(id=3,smin=smin32=0,smax=umax=smax32=umax32=1,var_off=(0x0; 0x1)) fp-72=scalar(id=2,smin=smin32=0,smax=umax=smax32=umax32=1,var_off=(0x0; 0x1))
; __u64 v = (p ? *p : 0) + 1; @ wm.bpf.c:56
176: (7b) *(u64 *)(r10 -16) = r1      ; R1_w=1 R10=fp0 fp-16_w=1
177: (bf) r2 = r10                    ; R2_w=fp0 R10=fp0
178: (07) r2 += -4                    ; R2_w=fp-4
179: (bf) r3 = r10                    ; R3_w=fp0 R10=fp0
180: (07) r3 += -16                   ; R3_w=fp-16
; bpf_map_update_elem(&TAPE, &idx, &v, BPF_ANY); @ wm.bpf.c:57
181: (18) r1 = 0xffff0000ccc96000     ; R1_w=map_ptr(map=TAPE,ks=4,vs=8)
183: (b7) r4 = 0                      ; R4_w=0
184: (85) call bpf_map_update_elem#2
frame 0: propagating r6
mark_precise: frame0: last_idx 185 first_idx 172 subseq_idx -1 
mark_precise: frame0: regs=r6 stack= before 184: (85) call bpf_map_update_elem#2
mark_precise: frame0: regs=r6 stack= before 183: (b7) r4 = 0
mark_precise: frame0: regs=r6 stack= before 181: (18) r1 = 0xffff0000ccc96000
mark_precise: frame0: regs=r6 stack= before 180: (07) r3 += -16
mark_precise: frame0: regs=r6 stack= before 179: (bf) r3 = r10
mark_precise: frame0: regs=r6 stack= before 178: (07) r2 += -4
mark_precise: frame0: regs=r6 stack= before 177: (bf) r2 = r10
mark_precise: frame0: regs=r6 stack= before 176: (7b) *(u64 *)(r10 -16) = r1
mark_precise: frame0: regs=r6 stack= before 173: (15) if r0 == 0x0 goto pc+2
mark_precise: frame0: regs=r6 stack= before 172: (b7) r1 = 1
mark_precise: frame0: parent state regs= stack=:  R0_rw=map_value_or_null(id=12,map=TAPE,ks=4,vs=8) R6_r=P0 R7=fp-20 R8=fp-32 R9=scalar(umin=1) R10=fp0 fp-8_r=mmmm???? fp-16=scalar(id=8) fp-24_r=00001 fp-32=1 fp-40_r=mmmmscalar(id=10,smin=smin32=0,smax=umax=smax32=umax32=1,var_off=(0x0; 0x1)) fp-48_rw=scalar(id=11) fp-56_r=scalar(id=6) fp-64_r=scalar(id=3,smin=smin32=0,smax=umax=smax32=umax32=1,var_off=(0x0; 0x1)) fp-72_r=scalar(id=2,smin=smin32=0,smax=umax=smax32=umax32=1,var_off=(0x0; 0x1))
185: safe
frame 0: propagating r6
mark_precise: frame0: last_idx 185 first_idx 163 subseq_idx -1 
mark_precise: frame0: regs=r6 stack= before 164: (15) if r9 == 0x0 goto pc+20
mark_precise: frame0: regs=r6 stack= before 163: (7b) *(u64 *)(r10 -48) = r0
mark_precise: frame0: parent state regs= stack=:  R0_rw=scalar() R6_r=P0 R7=fp-20 R8=fp-32 R9_rw=scalar() R10=fp0 fp-8_r=mmmm???? fp-16=scalar(id=8) fp-24_r=00001 fp-32=1 fp-40_r=mmmmscalar(id=10,smin=smin32=0,smax=umax=smax32=umax32=1,var_off=(0x0; 0x1)) fp-48=scalar(id=1,smin=smin32=0,smax=umax=smax32=umax32=1,var_off=(0x0; 0x1)) fp-56_r=scalar(id=6) fp-64_r=scalar(id=3,smin=smin32=0,smax=umax=smax32=umax32=1,var_off=(0x0; 0x1)) fp-72_r=scalar(id=2,smin=smin32=0,smax=umax=smax32=umax32=1,var_off=(0x0; 0x1))

from 164 to 185: safe

from 99 to 102: R0=0 R1=1 R6=fp-20 R7=fp-32 R8=scalar(umin=1) R9=1 R10=fp0 fp-8=mmmm???? fp-16=????3 fp-24=00001 fp-32=1 fp-40=mmmmscalar(id=5,smin=smin32=0,smax=umax=smax32=umax32=1,var_off=(0x0; 0x1)) fp-48=scalar(id=1,smin=smin32=0,smax=umax=smax32=umax32=1,var_off=(0x0; 0x1)) fp-56=scalar(id=6) fp-64=scalar(id=3,smin=smin32=0,smax=umax=smax32=umax32=1,var_off=(0x0; 0x1)) fp-72=scalar(id=2,smin=smin32=0,smax=umax=smax32=umax32=1,var_off=(0x0; 0x1))
102: R0=0 R1=1 R6=fp-20 R7=fp-32 R8=scalar(umin=1) R9=1 R10=fp0 fp-8=mmmm???? fp-16=????3 fp-24=00001 fp-32=1 fp-40=mmmmscalar(id=5,smin=smin32=0,smax=umax=smax32=umax32=1,var_off=(0x0; 0x1)) fp-48=scalar(id=1,smin=smin32=0,smax=umax=smax32=umax32=1,var_off=(0x0; 0x1)) fp-56=scalar(id=6) fp-64=scalar(id=3,smin=smin32=0,smax=umax=smax32=umax32=1,var_off=(0x0; 0x1)) fp-72=scalar(id=2,smin=smin32=0,smax=umax=smax32=umax32=1,var_off=(0x0; 0x1))
; __u64 v = (p ? *p : 0) + 1; @ wm.bpf.c:56
102: (7b) *(u64 *)(r10 -16) = r1      ; R1=1 R10=fp0 fp-16_w=1
103: (bf) r2 = r10                    ; R2_w=fp0 R10=fp0
104: (07) r2 += -4                    ; R2_w=fp-4
105: (bf) r3 = r10                    ; R3_w=fp0 R10=fp0
106: (07) r3 += -16                   ; R3_w=fp-16
; bpf_map_update_elem(&TAPE, &idx, &v, BPF_ANY); @ wm.bpf.c:57
107: (18) r1 = 0xffff0000ccc96000     ; R1_w=map_ptr(map=TAPE,ks=4,vs=8)
109: (b7) r4 = 0                      ; R4_w=0
110: (85) call bpf_map_update_elem#2
111: safe

from 90 to 111: safe
verification time 1411 usec
stack depth 72
processed 897 insns (limit 1000000) max_states_per_insn 1 total_states 64 peak_states 64 mark_read 39
-- END PROG LOAD LOG --
libbpf: prog 'wm_adder32': -- BEGIN PROG LOAD LOG --
func#0 @0
func#1 @30
Live regs before insn:
      0: .......... (b7) r1 = 0
      1: .1........ (7b) *(u64 *)(r10 -8) = r1
      2: .......... (b7) r1 = 160
      3: .1........ (63) *(u32 *)(r10 -12) = r1
      4: .......... (b7) r1 = 161
      5: .1........ (63) *(u32 *)(r10 -16) = r1
      6: .......... (bf) r2 = r10
      7: ..2....... (07) r2 += -12
      8: ..2....... (bf) r6 = r10
      9: ..2...6... (07) r6 += -8
     10: ..2...6... (18) r1 = 0xffff0000ccc96000
     12: .12...6... (bf) r3 = r6
     13: .123..6... (b7) r4 = 0
     14: .1234.6... (85) call bpf_map_update_elem#2
     15: ......6... (bf) r2 = r10
     16: ..2...6... (07) r2 += -16
     17: ..2...6... (18) r1 = 0xffff0000ccc96000
     19: .12...6... (bf) r3 = r6
     20: .123...... (b7) r4 = 0
     21: .1234..... (85) call bpf_map_update_elem#2
     22: .......... (b7) r1 = 32
     23: .1........ (18) r2 = 0x6
     25: .12....... (b7) r3 = 0
     26: .123...... (b7) r4 = 0
     27: .1234..... (85) call bpf_loop#181
     28: .......... (b7) r0 = 0
     29: 0......... (95) exit
     30: .1........ (bf) r7 = r1
     31: .1.....7.. (b7) r6 = 1
     32: .1....67.. (67) r1 <<= 32
     33: .1....67.. (77) r1 >>= 32
     34: .1....67.. (25) if r1 > 0x1f goto pc+739
     35: .......7.. (bf) r1 = r7
     36: .1.....7.. (07) r1 += 16
     37: .1.....7.. (63) *(u32 *)(r10 -16) = r1
     38: .......7.. (bf) r2 = r10
     39: ..2....7.. (07) r2 += -16
     40: ..2....7.. (18) r1 = 0xffff0000ccc96000
     42: .12....7.. (85) call bpf_map_lookup_elem#1
     43: 0......7.. (b7) r6 = 0
     44: 0.....67.. (b7) r1 = 0
     45: 01....67.. (7b) *(u64 *)(r10 -48) = r1
     46: 0.....67.. (15) if r0 == 0x0 goto pc+3
     47: 0.....67.. (79) r1 = *(u64 *)(r0 +0)
     48: .1....67.. (57) r1 &= 1
     49: .1....67.. (7b) *(u64 *)(r10 -48) = r1
     50: ......67.. (bf) r1 = r7
     51: .1....67.. (47) r1 |= 64
     52: .1....67.. (63) *(u32 *)(r10 -16) = r1
     53: ......67.. (bf) r2 = r10
     54: ..2...67.. (07) r2 += -16
     55: ..2...67.. (18) r1 = 0xffff0000ccc96000
     57: .12...67.. (85) call bpf_map_lookup_elem#1
     58: 0.....67.. (15) if r0 == 0x0 goto pc+2
     59: 0......7.. (79) r6 = *(u64 *)(r0 +0)
     60: ......67.. (57) r6 &= 1
     61: ......67.. (7b) *(u64 *)(r10 -80) = r6
     62: .......7.. (7b) *(u64 *)(r10 -56) = r7
     63: .......... (b7) r1 = 160
     64: .1........ (63) *(u32 *)(r10 -16) = r1
     65: .......... (bf) r2 = r10
     66: ..2....... (07) r2 += -16
     67: ..2....... (18) r1 = 0xffff0000ccc96000
     69: .12....... (85) call bpf_map_lookup_elem#1
     70: 0......... (b7) r1 = 0
     71: 01........ (b7) r2 = 0
     72: 012....... (15) if r0 == 0x0 goto pc+2
     73: 01........ (79) r2 = *(u64 *)(r0 +0)
     74: .12....... (57) r2 &= 1
     75: .12....... (7b) *(u64 *)(r10 -72) = r2
     76: .1........ (63) *(u32 *)(r10 -20) = r1
     77: .......... (b7) r9 = 1
     78: .........9 (63) *(u32 *)(r10 -24) = r9
     79: .........9 (7b) *(u64 *)(r10 -32) = r9
     80: .........9 (bf) r7 = r10
     81: .......7.9 (07) r7 += -20
     82: .......7.9 (18) r1 = 0xffff0000c8517000
     84: .1.....7.9 (bf) r2 = r7
     85: .12....7.9 (85) call bpf_map_delete_elem#3
     86: .......7.9 (bf) r2 = r10
     87: ..2....7.9 (07) r2 += -24
     88: ..2....7.9 (18) r1 = 0xffff0000c8517000
     90: .12....7.9 (85) call bpf_map_delete_elem#3
     91: .......7.9 (b7) r1 = 2
     92: .1.....7.9 (63) *(u32 *)(r10 -36) = r1
     93: .......7.9 (bf) r2 = r10
     94: ..2....7.9 (07) r2 += -36
     95: ..2....7.9 (18) r1 = 0xffff0000c8517000
     97: .12....7.9 (85) call bpf_map_delete_elem#3
     98: .......7.9 (bf) r6 = r10
     99: ......67.9 (07) r6 += -32
    100: ......67.9 (18) r1 = 0xffff0000c8517000
    102: .1....67.9 (bf) r2 = r7
    103: .12...67.9 (bf) r3 = r6
    104: .123..67.9 (b7) r4 = 1
    105: .1234.67.9 (85) call bpf_map_update_elem#2
    106: 0.....67.9 (bf) r8 = r0
    107: ......6789 (61) r1 = *(u32 *)(r10 -20)
    108: .1....6789 (61) r2 = *(u32 *)(r10 -24)
    109: .12...6789 (1f) r2 -= r1
    110: .12...6789 (79) r3 = *(u64 *)(r10 -48)
    111: .123..6789 (2f) r2 *= r3
    112: .12...6789 (0f) r2 += r1
    113: ..2...6789 (63) *(u32 *)(r10 -40) = r2
    114: ......6789 (bf) r2 = r10
    115: ..2...6789 (07) r2 += -40
    116: ..2...6789 (18) r1 = 0xffff0000c8517000
    118: .12...6789 (bf) r3 = r6
    119: .123..6789 (b7) r4 = 0
    120: .1234.6789 (85) call bpf_map_update_elem#2
    121: 0.....6789 (4f) r8 |= r0
    122: ......6789 (18) r1 = 0xffff0000c8517000
    124: .1....6789 (bf) r2 = r7
    125: .12...6.89 (bf) r3 = r6
    126: .123....89 (b7) r4 = 0
    127: .1234...89 (85) call bpf_map_update_elem#2
    128: 0.......89 (7b) *(u64 *)(r10 -64) = r0
    129: ........89 (15) if r8 == 0x0 goto pc+20
    130: .........9 (b7) r1 = 161
    131: .1.......9 (63) *(u32 *)(r10 -4) = r1
    132: .........9 (bf) r2 = r10
    133: ..2......9 (07) r2 += -4
    134: ..2......9 (18) r1 = 0xffff0000ccc96000
    136: .12......9 (85) call bpf_map_lookup_elem#1
    137: 0........9 (b7) r1 = 1
    138: 01.......9 (15) if r0 == 0x0 goto pc+2
    139: 0........9 (79) r1 = *(u64 *)(r0 +0)
    140: .1.......9 (07) r1 += 1
    141: .1.......9 (7b) *(u64 *)(r10 -16) = r1
    142: .........9 (bf) r2 = r10
    143: ..2......9 (07) r2 += -4
    144: ..2......9 (bf) r3 = r10
    145: ..23.....9 (07) r3 += -16
    146: ..23.....9 (18) r1 = 0xffff0000ccc96000
    148: .123.....9 (b7) r4 = 0
    149: .1234....9 (85) call bpf_map_update_elem#2
    150: .........9 (b7) r7 = 0
    151: .......7.9 (63) *(u32 *)(r10 -20) = r7
    152: .......7.9 (63) *(u32 *)(r10 -24) = r9
    153: .......7.9 (7b) *(u64 *)(r10 -32) = r9
    154: .......7.. (bf) r8 = r10
    155: .......78. (07) r8 += -20
    156: .......78. (18) r1 = 0xffff0000c8514800
    158: .1.....78. (bf) r2 = r8
    159: .12....78. (85) call bpf_map_delete_elem#3
    160: .......78. (bf) r2 = r10
    161: ..2....78. (07) r2 += -24
    162: ..2....78. (18) r1 = 0xffff0000c8514800
    164: .12....78. (85) call bpf_map_delete_elem#3
    165: .......78. (b7) r1 = 2
    166: .1.....78. (63) *(u32 *)(r10 -36) = r1
    167: .......78. (bf) r2 = r10
    168: ..2....78. (07) r2 += -36
    169: ..2....78. (18) r1 = 0xffff0000c8514800
    171: .12....78. (85) call bpf_map_delete_elem#3
    172: .......78. (bf) r6 = r10
    173: ......678. (07) r6 += -32
    174: ......678. (18) r1 = 0xffff0000c8514800
    176: .1....678. (bf) r2 = r8
    177: .12...678. (bf) r3 = r6
    178: .123..678. (b7) r4 = 1
    179: .1234.678. (85) call bpf_map_update_elem#2
    180: 0.....678. (bf) r9 = r0
    181: ......6789 (61) r1 = *(u32 *)(r10 -20)
    182: .1....6789 (61) r2 = *(u32 *)(r10 -24)
    183: .12...6789 (1f) r2 -= r1
    184: .12...6789 (79) r3 = *(u64 *)(r10 -48)
    185: .123..6789 (2f) r2 *= r3
    186: .12...6789 (0f) r2 += r1
    187: ..2...6789 (63) *(u32 *)(r10 -40) = r2
    188: ......6789 (bf) r2 = r10
    189: ..2...6789 (07) r2 += -40
    190: ..2...6789 (18) r1 = 0xffff0000c8514800
    192: .12...6789 (bf) r3 = r6
    193: .123..6789 (b7) r4 = 0
    194: .1234.6789 (85) call bpf_map_update_elem#2
    195: 0.....6789 (4f) r9 |= r0
    196: ......6789 (18) r1 = 0xffff0000c8514800
    198: .1....6789 (bf) r2 = r8
    199: .12...67.9 (bf) r3 = r6
    200: .123...7.9 (b7) r4 = 0
    201: .1234..7.9 (85) call bpf_map_update_elem#2
    202: 0......7.9 (7b) *(u64 *)(r10 -48) = r0
    203: .......7.9 (15) if r9 == 0x0 goto pc+20
    204: .......7.. (b7) r1 = 161
    205: .1.....7.. (63) *(u32 *)(r10 -4) = r1
    206: .......7.. (bf) r2 = r10
    207: ..2....7.. (07) r2 += -4
    208: ..2....7.. (18) r1 = 0xffff0000ccc96000
    210: .12....7.. (85) call bpf_map_lookup_elem#1
    211: 0......7.. (b7) r1 = 1
    212: 01.....7.. (15) if r0 == 0x0 goto pc+2
    213: 0......7.. (79) r1 = *(u64 *)(r0 +0)
    214: .1.....7.. (07) r1 += 1
    215: .1.....7.. (7b) *(u64 *)(r10 -16) = r1
    216: .......7.. (bf) r2 = r10
    217: ..2....7.. (07) r2 += -4
    218: ..2....7.. (bf) r3 = r10
    219: ..23...7.. (07) r3 += -16
    220: ..23...7.. (18) r1 = 0xffff0000ccc96000
    222: .123...7.. (b7) r4 = 0
    223: .1234..7.. (85) call bpf_map_update_elem#2
    224: .......7.. (63) *(u32 *)(r10 -20) = r7
    225: .......... (b7) r1 = 1
    226: .1........ (63) *(u32 *)(r10 -24) = r1
    227: .1........ (7b) *(u64 *)(r10 -32) = r1
    228: .......... (bf) r9 = r10
    229: .........9 (07) r9 += -20
    230: .........9 (18) r1 = 0xffff0000c8516c00
    232: .1.......9 (bf) r2 = r9
    233: .12......9 (85) call bpf_map_delete_elem#3
    234: .........9 (bf) r8 = r10
    235: ........89 (07) r8 += -24
    236: ........89 (18) r1 = 0xffff0000c8516c00
    238: .1......89 (bf) r2 = r8
    239: .12.....89 (85) call bpf_map_delete_elem#3
    240: ........89 (b7) r1 = 2
    241: .1......89 (63) *(u32 *)(r10 -36) = r1
    242: ........89 (bf) r2 = r10
    243: ..2.....89 (07) r2 += -36
    244: ..2.....89 (18) r1 = 0xffff0000c8516c00
    246: .12.....89 (85) call bpf_map_delete_elem#3
    247: ........89 (bf) r6 = r10
    248: ......6.89 (07) r6 += -32
    249: ......6.89 (18) r1 = 0xffff0000c8516c00
    251: .1....6.89 (bf) r2 = r9
    252: .12...6.89 (bf) r3 = r6
    253: .123..6.89 (b7) r4 = 1
    254: .1234.6.89 (85) call bpf_map_update_elem#2
    255: 0.....6.89 (bf) r7 = r0
    256: ......6789 (bf) r1 = r9
    257: .1....6789 (79) r2 = *(u64 *)(r10 -80)
    258: .12...6789 (15) if r2 == 0x0 goto pc+1
    259: ......6789 (bf) r1 = r8
    260: .1....67.9 (61) r1 = *(u32 *)(r1 +0)
    261: .1....67.9 (63) *(u32 *)(r10 -40) = r1
    262: ......67.9 (bf) r2 = r10
    263: ..2...67.9 (07) r2 += -40
    264: ..2...67.9 (18) r1 = 0xffff0000c8516c00
    266: .12...67.9 (bf) r3 = r6
    267: .123..67.9 (b7) r4 = 0
    268: .1234.67.9 (85) call bpf_map_update_elem#2
    269: 0.....67.9 (bf) r8 = r0
    270: ......6789 (18) r1 = 0xffff0000c8516c00
    272: .1....6789 (bf) r2 = r9
    273: .12...678. (bf) r3 = r6
    274: .123...78. (b7) r4 = 0
    275: .1234..78. (85) call bpf_map_update_elem#2
    276: .......78. (4f) r7 |= r8
    277: .......7.. (15) if r7 == 0x0 goto pc+20
    278: .......... (b7) r1 = 161
    279: .1........ (63) *(u32 *)(r10 -4) = r1
    280: .......... (bf) r2 = r10
    281: ..2....... (07) r2 += -4
    282: ..2....... (18) r1 = 0xffff0000ccc96000
    284: .12....... (85) call bpf_map_lookup_elem#1
    285: 0......... (b7) r1 = 1
    286: 01........ (15) if r0 == 0x0 goto pc+2
    287: 0......... (79) r1 = *(u64 *)(r0 +0)
    288: .1........ (07) r1 += 1
    289: .1........ (7b) *(u64 *)(r10 -16) = r1
    290: .......... (bf) r2 = r10
    291: ..2....... (07) r2 += -4
    292: ..2....... (bf) r3 = r10
    293: ..23...... (07) r3 += -16
    294: ..23...... (18) r1 = 0xffff0000ccc96000
    296: .123...... (b7) r4 = 0
    297: .1234..... (85) call bpf_map_update_elem#2
    298: .......... (b7) r1 = 0
    299: .1........ (63) *(u32 *)(r10 -20) = r1
    300: .......... (b7) r1 = 1
    301: .1........ (63) *(u32 *)(r10 -24) = r1
    302: .1........ (7b) *(u64 *)(r10 -32) = r1
    303: .......... (bf) r8 = r10
    304: ........8. (07) r8 += -20
    305: ........8. (18) r1 = 0xffff0000c8517c00
    307: .1......8. (bf) r2 = r8
    308: .12.....8. (85) call bpf_map_delete_elem#3
    309: ........8. (bf) r9 = r10
    310: ........89 (07) r9 += -24
    311: ........89 (18) r1 = 0xffff0000c8517c00
    313: .1......89 (bf) r2 = r9
    314: .12.....89 (85) call bpf_map_delete_elem#3
    315: ........89 (b7) r1 = 2
    316: .1......89 (63) *(u32 *)(r10 -36) = r1
    317: ........89 (bf) r2 = r10
    318: ..2.....89 (07) r2 += -36
    319: ..2.....89 (18) r1 = 0xffff0000c8517c00
    321: .12.....89 (85) call bpf_map_delete_elem#3
    322: ........89 (bf) r6 = r10
    323: ......6.89 (07) r6 += -32
    324: ......6.89 (18) r1 = 0xffff0000c8517c00
    326: .1....6.89 (bf) r2 = r8
    327: .12...6.89 (bf) r3 = r6
    328: .123..6.89 (b7) r4 = 1
    329: .1234.6.89 (85) call bpf_map_update_elem#2
    330: 0.....6.89 (bf) r7 = r0
    331: ......6789 (79) r1 = *(u64 *)(r10 -48)
    332: .1....6789 (15) if r1 == 0x0 goto pc+1
    333: ......678. (bf) r9 = r8
    334: ......6789 (61) r1 = *(u32 *)(r9 +0)
    335: .1....678. (63) *(u32 *)(r10 -40) = r1
    336: ......678. (bf) r2 = r10
    337: ..2...678. (07) r2 += -40
    338: ..2...678. (18) r1 = 0xffff0000c8517c00
    340: .12...678. (bf) r3 = r6
    341: .123..678. (b7) r4 = 0
    342: .1234.678. (85) call bpf_map_update_elem#2
    343: 0.....678. (4f) r7 |= r0
    344: ......678. (18) r1 = 0xffff0000c8517c00
    346: .1....678. (bf) r2 = r8
    347: .12...67.. (bf) r3 = r6
    348: .123...7.. (b7) r4 = 0
    349: .1234..7.. (85) call bpf_map_update_elem#2
    350: 0......7.. (7b) *(u64 *)(r10 -48) = r0
    351: .......7.. (15) if r7 == 0x0 goto pc+20
    352: .......... (b7) r1 = 161
    353: .1........ (63) *(u32 *)(r10 -4) = r1
    354: .......... (bf) r2 = r10
    355: ..2....... (07) r2 += -4
    356: ..2....... (18) r1 = 0xffff0000ccc96000
    358: .12....... (85) call bpf_map_lookup_elem#1
    359: 0......... (b7) r1 = 1
    360: 01........ (15) if r0 == 0x0 goto pc+2
    361: 0......... (79) r1 = *(u64 *)(r0 +0)
    362: .1........ (07) r1 += 1
    363: .1........ (7b) *(u64 *)(r10 -16) = r1
    364: .......... (bf) r2 = r10
    365: ..2....... (07) r2 += -4
    366: ..2....... (bf) r3 = r10
    367: ..23...... (07) r3 += -16
    368: ..23...... (18) r1 = 0xffff0000ccc96000
    370: .123...... (b7) r4 = 0
    371: .1234..... (85) call bpf_map_update_elem#2
    372: .......... (b7) r1 = 0
    373: .1........ (63) *(u32 *)(r10 -20) = r1
    374: .......... (b7) r1 = 1
    375: .1........ (63) *(u32 *)(r10 -24) = r1
    376: .1........ (7b) *(u64 *)(r10 -32) = r1
    377: .......... (bf) r8 = r10
    378: ........8. (07) r8 += -20
    379: ........8. (18) r1 = 0xffff0000c5ddd800
    381: .1......8. (bf) r2 = r8
    382: .12.....8. (85) call bpf_map_delete_elem#3
    383: ........8. (bf) r9 = r10
    384: ........89 (07) r9 += -24
    385: ........89 (18) r1 = 0xffff0000c5ddd800
    387: .1......89 (bf) r2 = r9
    388: .12.....89 (85) call bpf_map_delete_elem#3
    389: ........89 (b7) r1 = 2
    390: .1......89 (63) *(u32 *)(r10 -36) = r1
    391: ........89 (bf) r2 = r10
    392: ..2.....89 (07) r2 += -36
    393: ..2.....89 (18) r1 = 0xffff0000c5ddd800
    395: .12.....89 (85) call bpf_map_delete_elem#3
    396: ........89 (bf) r6 = r10
    397: ......6.89 (07) r6 += -32
    398: ......6.89 (18) r1 = 0xffff0000c5ddd800
    400: .1....6.89 (bf) r2 = r8
    401: .12...6.89 (bf) r3 = r6
    402: .123..6.89 (b7) r4 = 1
    403: .1234.6.89 (85) call bpf_map_update_elem#2
    404: 0.....6.89 (bf) r7 = r0
    405: ......6789 (79) r1 = *(u64 *)(r10 -48)
    406: .1....6789 (15) if r1 == 0x0 goto pc+1
    407: ......678. (bf) r9 = r8
    408: ......6789 (61) r1 = *(u32 *)(r9 +0)
    409: .1....678. (63) *(u32 *)(r10 -40) = r1
    410: ......678. (bf) r2 = r10
    411: ..2...678. (07) r2 += -40
    412: ..2...678. (18) r1 = 0xffff0000c5ddd800
    414: .12...678. (bf) r3 = r6
    415: .123..678. (b7) r4 = 0
    416: .1234.678. (85) call bpf_map_update_elem#2
    417: 0.....678. (bf) r9 = r0
    418: ......6789 (18) r1 = 0xffff0000c5ddd800
    420: .1....6789 (bf) r2 = r8
    421: .12...67.9 (bf) r3 = r6
    422: .123...7.9 (b7) r4 = 0
    423: .1234..7.9 (85) call bpf_map_update_elem#2
    424: .......7.9 (4f) r7 |= r9
    425: .......7.. (15) if r7 == 0x0 goto pc+20
    426: .......... (b7) r1 = 161
    427: .1........ (63) *(u32 *)(r10 -4) = r1
    428: .......... (bf) r2 = r10
    429: ..2....... (07) r2 += -4
    430: ..2....... (18) r1 = 0xffff0000ccc96000
    432: .12....... (85) call bpf_map_lookup_elem#1
    433: 0......... (b7) r1 = 1
    434: 01........ (15) if r0 == 0x0 goto pc+2
    435: 0......... (79) r1 = *(u64 *)(r0 +0)
    436: .1........ (07) r1 += 1
    437: .1........ (7b) *(u64 *)(r10 -16) = r1
    438: .......... (bf) r2 = r10
    439: ..2....... (07) r2 += -4
    440: ..2....... (bf) r3 = r10
    441: ..23...... (07) r3 += -16
    442: ..23...... (18) r1 = 0xffff0000ccc96000
    444: .123...... (b7) r4 = 0
    445: .1234..... (85) call bpf_map_update_elem#2
    446: .......... (b7) r1 = 0
    447: .1........ (63) *(u32 *)(r10 -20) = r1
    448: .......... (b7) r1 = 1
    449: .1........ (63) *(u32 *)(r10 -24) = r1
    450: .1........ (7b) *(u64 *)(r10 -32) = r1
    451: .......... (bf) r9 = r10
    452: .........9 (07) r9 += -20
    453: .........9 (18) r1 = 0xffff0000c5ddd000
    455: .1.......9 (bf) r2 = r9
    456: .12......9 (85) call bpf_map_delete_elem#3
    457: .........9 (bf) r8 = r10
    458: ........89 (07) r8 += -24
    459: ........89 (18) r1 = 0xffff0000c5ddd000
    461: .1......89 (bf) r2 = r8
    462: .12.....89 (85) call bpf_map_delete_elem#3
    463: ........89 (b7) r1 = 2
    464: .1......89 (63) *(u32 *)(r10 -36) = r1
    465: ........89 (bf) r2 = r10
    466: ..2.....89 (07) r2 += -36
    467: ..2.....89 (18) r1 = 0xffff0000c5ddd000
    469: .12.....89 (85) call bpf_map_delete_elem#3
    470: ........89 (bf) r6 = r10
    471: ......6.89 (07) r6 += -32
    472: ......6.89 (18) r1 = 0xffff0000c5ddd000
    474: .1....6.89 (bf) r2 = r9
    475: .12...6.89 (bf) r3 = r6
    476: .123..6.89 (b7) r4 = 1
    477: .1234.6.89 (85) call bpf_map_update_elem#2
    478: 0.....6.89 (bf) r7 = r0
    479: ......6789 (79) r1 = *(u64 *)(r10 -48)
    480: .1....6789 (15) if r1 == 0x0 goto pc+1
    481: ......67.9 (bf) r8 = r9
    482: ......6789 (61) r1 = *(u32 *)(r8 +0)
    483: .1....67.9 (63) *(u32 *)(r10 -40) = r1
    484: ......67.9 (bf) r2 = r10
    485: ..2...67.9 (07) r2 += -40
    486: ..2...67.9 (18) r1 = 0xffff0000c5ddd000
    488: .12...67.9 (bf) r3 = r6
    489: .123..67.9 (b7) r4 = 0
    490: .1234.67.9 (85) call bpf_map_update_elem#2
    491: 0.....67.9 (4f) r7 |= r0
    492: ......67.9 (18) r1 = 0xffff0000c5ddd000
    494: .1....67.9 (bf) r2 = r9
    495: .12...67.. (bf) r3 = r6
    496: .123...7.. (b7) r4 = 0
    497: .1234..7.. (85) call bpf_map_update_elem#2
    498: 0......7.. (7b) *(u64 *)(r10 -48) = r0
    499: .......7.. (15) if r7 == 0x0 goto pc+20
    500: .......... (b7) r1 = 161
    501: .1........ (63) *(u32 *)(r10 -4) = r1
    502: .......... (bf) r2 = r10
    503: ..2....... (07) r2 += -4
    504: ..2....... (18) r1 = 0xffff0000ccc96000
    506: .12....... (85) call bpf_map_lookup_elem#1
    507: 0......... (b7) r1 = 1
    508: 01........ (15) if r0 == 0x0 goto pc+2
    509: 0......... (79) r1 = *(u64 *)(r0 +0)
    510: .1........ (07) r1 += 1
    511: .1........ (7b) *(u64 *)(r10 -16) = r1
    512: .......... (bf) r2 = r10
    513: ..2....... (07) r2 += -4
    514: ..2....... (bf) r3 = r10
    515: ..23...... (07) r3 += -16
    516: ..23...... (18) r1 = 0xffff0000ccc96000
    518: .123...... (b7) r4 = 0
    519: .1234..... (85) call bpf_map_update_elem#2
    520: .......... (b7) r1 = 0
    521: .1........ (63) *(u32 *)(r10 -20) = r1
    522: .......... (b7) r1 = 1
    523: .1........ (63) *(u32 *)(r10 -24) = r1
    524: .1........ (7b) *(u64 *)(r10 -32) = r1
    525: .......... (bf) r9 = r10
    526: .........9 (07) r9 += -20
    527: .........9 (18) r1 = 0xffff0000c5ddf400
    529: .1.......9 (bf) r2 = r9
    530: .12......9 (85) call bpf_map_delete_elem#3
    531: .........9 (bf) r8 = r10
    532: ........89 (07) r8 += -24
    533: ........89 (18) r1 = 0xffff0000c5ddf400
    535: .1......89 (bf) r2 = r8
    536: .12.....89 (85) call bpf_map_delete_elem#3
    537: ........89 (b7) r1 = 2
    538: .1......89 (63) *(u32 *)(r10 -36) = r1
    539: ........89 (bf) r2 = r10
    540: ..2.....89 (07) r2 += -36
    541: ..2.....89 (18) r1 = 0xffff0000c5ddf400
    543: .12.....89 (85) call bpf_map_delete_elem#3
    544: ........89 (bf) r6 = r10
    545: ......6.89 (07) r6 += -32
    546: ......6.89 (18) r1 = 0xffff0000c5ddf400
    548: .1....6.89 (bf) r2 = r9
    549: .12...6.89 (bf) r3 = r6
    550: .123..6.89 (b7) r4 = 1
    551: .1234.6.89 (85) call bpf_map_update_elem#2
    552: 0.....6.89 (bf) r7 = r0
    553: ......6789 (bf) r1 = r9
    554: .1....6789 (79) r2 = *(u64 *)(r10 -72)
    555: .12...6789 (15) if r2 == 0x0 goto pc+1
    556: ......6789 (bf) r1 = r8
    557: .1....67.9 (61) r1 = *(u32 *)(r1 +0)
    558: .1....67.9 (63) *(u32 *)(r10 -40) = r1
    559: ......67.9 (bf) r2 = r10
    560: ..2...67.9 (07) r2 += -40
    561: ..2...67.9 (18) r1 = 0xffff0000c5ddf400
    563: .12...67.9 (bf) r3 = r6
    564: .123..67.9 (b7) r4 = 0
    565: .1234.67.9 (85) call bpf_map_update_elem#2
    566: 0.....67.9 (bf) r8 = r0
    567: ......6789 (18) r1 = 0xffff0000c5ddf400
    569: .1....6789 (bf) r2 = r9
    570: .12...678. (bf) r3 = r6
    571: .123...78. (b7) r4 = 0
    572: .1234..78. (85) call bpf_map_update_elem#2
    573: .......78. (4f) r7 |= r8
    574: .......7.. (15) if r7 == 0x0 goto pc+20
    575: .......... (b7) r1 = 161
    576: .1........ (63) *(u32 *)(r10 -4) = r1
    577: .......... (bf) r2 = r10
    578: ..2....... (07) r2 += -4
    579: ..2....... (18) r1 = 0xffff0000ccc96000
    581: .12....... (85) call bpf_map_lookup_elem#1
    582: 0......... (b7) r1 = 1
    583: 01........ (15) if r0 == 0x0 goto pc+2
    584: 0......... (79) r1 = *(u64 *)(r0 +0)
    585: .1........ (07) r1 += 1
    586: .1........ (7b) *(u64 *)(r10 -16) = r1
    587: .......... (bf) r2 = r10
    588: ..2....... (07) r2 += -4
    589: ..2....... (bf) r3 = r10
    590: ..23...... (07) r3 += -16
    591: ..23...... (18) r1 = 0xffff0000ccc96000
    593: .123...... (b7) r4 = 0
    594: .1234..... (85) call bpf_map_update_elem#2
    595: .......... (b7) r1 = 0
    596: .1........ (63) *(u32 *)(r10 -20) = r1
    597: .......... (b7) r1 = 1
    598: .1........ (63) *(u32 *)(r10 -24) = r1
    599: .1........ (7b) *(u64 *)(r10 -32) = r1
    600: .......... (bf) r8 = r10
    601: ........8. (07) r8 += -20
    602: ........8. (18) r1 = 0xffff0000c40e1000
    604: .1......8. (bf) r2 = r8
    605: .12.....8. (85) call bpf_map_delete_elem#3
    606: ........8. (bf) r9 = r10
    607: ........89 (07) r9 += -24
    608: ........89 (18) r1 = 0xffff0000c40e1000
    610: .1......89 (bf) r2 = r9
    611: .12.....89 (85) call bpf_map_delete_elem#3
    612: ........89 (b7) r1 = 2
    613: .1......89 (63) *(u32 *)(r10 -36) = r1
    614: ........89 (bf) r2 = r10
    615: ..2.....89 (07) r2 += -36
    616: ..2.....89 (18) r1 = 0xffff0000c40e1000
    618: .12.....89 (85) call bpf_map_delete_elem#3
    619: ........89 (bf) r6 = r10
    620: ......6.89 (07) r6 += -32
    621: ......6.89 (18) r1 = 0xffff0000c40e1000
    623: .1....6.89 (bf) r2 = r8
    624: .12...6.89 (bf) r3 = r6
    625: .123..6.89 (b7) r4 = 1
    626: .1234.6.89 (85) call bpf_map_update_elem#2
    627: 0.....6.89 (bf) r7 = r0
    628: ......6789 (79) r1 = *(u64 *)(r10 -48)
    629: .1....6789 (15) if r1 == 0x0 goto pc+1
    630: ......678. (bf) r9 = r8
    631: ......6789 (61) r1 = *(u32 *)(r9 +0)
    632: .1....678. (63) *(u32 *)(r10 -40) = r1
    633: ......678. (bf) r2 = r10
    634: ..2...678. (07) r2 += -40
    635: ..2...678. (18) r1 = 0xffff0000c40e1000
    637: .12...678. (bf) r3 = r6
    638: .123..678. (b7) r4 = 0
    639: .1234.678. (85) call bpf_map_update_elem#2
    640: 0.....678. (4f) r7 |= r0
    641: ......678. (18) r1 = 0xffff0000c40e1000
    643: .1....678. (bf) r2 = r8
    644: .12...67.. (bf) r3 = r6
    645: .123...7.. (b7) r4 = 0
    646: .1234..7.. (85) call bpf_map_update_elem#2
    647: 0......7.. (7b) *(u64 *)(r10 -48) = r0
    648: .......7.. (15) if r7 == 0x0 goto pc+20
    649: .......... (b7) r1 = 161
    650: .1........ (63) *(u32 *)(r10 -4) = r1
    651: .......... (bf) r2 = r10
    652: ..2....... (07) r2 += -4
    653: ..2....... (18) r1 = 0xffff0000ccc96000
    655: .12....... (85) call bpf_map_lookup_elem#1
    656: 0......... (b7) r1 = 1
    657: 01........ (15) if r0 == 0x0 goto pc+2
    658: 0......... (79) r1 = *(u64 *)(r0 +0)
    659: .1........ (07) r1 += 1
    660: .1........ (7b) *(u64 *)(r10 -16) = r1
    661: .......... (bf) r2 = r10
    662: ..2....... (07) r2 += -4
    663: ..2....... (bf) r3 = r10
    664: ..23...... (07) r3 += -16
    665: ..23...... (18) r1 = 0xffff0000ccc96000
    667: .123...... (b7) r4 = 0
    668: .1234..... (85) call bpf_map_update_elem#2
    669: .......... (b7) r1 = 0
    670: .1........ (63) *(u32 *)(r10 -20) = r1
    671: .......... (b7) r1 = 1
    672: .1........ (63) *(u32 *)(r10 -24) = r1
    673: .1........ (7b) *(u64 *)(r10 -32) = r1
    674: .......... (bf) r8 = r10
    675: ........8. (07) r8 += -20
    676: ........8. (18) r1 = 0xffff0000c40e0000
    678: .1......8. (bf) r2 = r8
    679: .12.....8. (85) call bpf_map_delete_elem#3
    680: ........8. (bf) r9 = r10
    681: ........89 (07) r9 += -24
    682: ........89 (18) r1 = 0xffff0000c40e0000
    684: .1......89 (bf) r2 = r9
    685: .12.....89 (85) call bpf_map_delete_elem#3
    686: ........89 (b7) r1 = 2
    687: .1......89 (63) *(u32 *)(r10 -36) = r1
    688: ........89 (bf) r2 = r10
    689: ..2.....89 (07) r2 += -36
    690: ..2.....89 (18) r1 = 0xffff0000c40e0000
    692: .12.....89 (85) call bpf_map_delete_elem#3
    693: ........89 (bf) r7 = r10
    694: .......789 (07) r7 += -32
    695: .......789 (18) r1 = 0xffff0000c40e0000
    697: .1.....789 (bf) r2 = r8
    698: .12....789 (bf) r3 = r7
    699: .123...789 (b7) r4 = 1
    700: .1234..789 (85) call bpf_map_update_elem#2
    701: 0......789 (bf) r6 = r0
    702: ......6789 (79) r1 = *(u64 *)(r10 -64)
    703: .1....6789 (15) if r1 == 0x0 goto pc+1
    704: ......678. (bf) r9 = r8
    705: ......6789 (61) r1 = *(u32 *)(r9 +0)
    706: .1....678. (63) *(u32 *)(r10 -40) = r1
    707: ......678. (bf) r2 = r10
    708: ..2...678. (07) r2 += -40
    709: ..2...678. (18) r1 = 0xffff0000c40e0000
    711: .12...678. (bf) r3 = r7
    712: .123..678. (b7) r4 = 0
    713: .1234.678. (85) call bpf_map_update_elem#2
    714: 0.....678. (4f) r6 |= r0
    715: ......678. (18) r1 = 0xffff0000c40e0000
    717: .1....678. (bf) r2 = r8
    718: .12...67.. (bf) r3 = r7
    719: .123..6... (b7) r4 = 0
    720: .1234.6... (85) call bpf_map_update_elem#2
    721: 0.....6... (bf) r7 = r0
    722: ......67.. (b7) r8 = 1
    723: ......678. (79) r1 = *(u64 *)(r10 -48)
    724: .1....678. (15) if r1 == 0x0 goto pc+1
    725: ......67.. (b7) r8 = 0
    726: ......678. (15) if r6 == 0x0 goto pc+20
    727: .......78. (b7) r1 = 161
    728: .1.....78. (63) *(u32 *)(r10 -4) = r1
    729: .......78. (bf) r2 = r10
    730: ..2....78. (07) r2 += -4
    731: ..2....78. (18) r1 = 0xffff0000ccc96000
    733: .12....78. (85) call bpf_map_lookup_elem#1
    734: 0......78. (b7) r1 = 1
    735: 01.....78. (15) if r0 == 0x0 goto pc+2
    736: 0......78. (79) r1 = *(u64 *)(r0 +0)
    737: .1.....78. (07) r1 += 1
    738: .1.....78. (7b) *(u64 *)(r10 -16) = r1
    739: .......78. (bf) r2 = r10
    740: ..2....78. (07) r2 += -4
    741: ..2....78. (bf) r3 = r10
    742: ..23...78. (07) r3 += -16
    743: ..23...78. (18) r1 = 0xffff0000ccc96000
    745: .123...78. (b7) r4 = 0
    746: .1234..78. (85) call bpf_map_update_elem#2
    747: .......78. (79) r1 = *(u64 *)(r10 -56)
    748: .1.....78. (07) r1 += 112
    749: .1.....78. (63) *(u32 *)(r10 -32) = r1
    750: .......78. (7b) *(u64 *)(r10 -16) = r8
    751: .......7.. (bf) r2 = r10
    752: ..2....7.. (07) r2 += -32
    753: ..2....7.. (bf) r3 = r10
    754: ..23...7.. (07) r3 += -16
    755: ..23...7.. (b7) r6 = 0
    756: ..23..67.. (18) r1 = 0xffff0000ccc96000
    758: .123..67.. (b7) r4 = 0
    759: .1234.67.. (85) call bpf_map_update_elem#2
    760: ......67.. (b7) r1 = 1
    761: .1....67.. (15) if r7 == 0x0 goto pc+1
    762: ......6... (b7) r1 = 0
    763: .1....6... (b7) r2 = 160
    764: .12...6... (63) *(u32 *)(r10 -32) = r2
    765: .1....6... (7b) *(u64 *)(r10 -16) = r1
    766: ......6... (bf) r2 = r10
    767: ..2...6... (07) r2 += -32
    768: ..2...6... (bf) r3 = r10
    769: ..23..6... (07) r3 += -16
    770: ..23..6... (18) r1 = 0xffff0000ccc96000
    772: .123..6... (b7) r4 = 0
    773: .1234.6... (85) call bpf_map_update_elem#2
    774: ......6... (bf) r0 = r6
    775: 0......... (95) exit
arg#0 reference type('UNKNOWN ') size cannot be determined: -22
0: R1=ctx() R10=fp0
; int wm_adder32(void *ctx) @ wm.bpf.c:176
0: (b7) r1 = 0                        ; R1_w=0
; __u64 zero = 0; @ wm.bpf.c:179
1: (7b) *(u64 *)(r10 -8) = r1         ; R1_w=0 R10=fp0 fp-8_w=0
2: (b7) r1 = 160                      ; R1_w=160
; __u32 ci = CARRY_IDX; @ wm.bpf.c:180
3: (63) *(u32 *)(r10 -12) = r1        ; R1_w=160 R10=fp0 fp-16=mmmm????
4: (b7) r1 = 161                      ; R1_w=161
; __u32 ei = ERR_IDX; @ wm.bpf.c:181
5: (63) *(u32 *)(r10 -16) = r1        ; R1_w=161 R10=fp0 fp-16=mmmm161
6: (bf) r2 = r10                      ; R2_w=fp0 R10=fp0
; __u64 zero = 0; @ wm.bpf.c:179
7: (07) r2 += -12                     ; R2_w=fp-12
8: (bf) r6 = r10                      ; R6_w=fp0 R10=fp0
9: (07) r6 += -8                      ; R6_w=fp-8
; bpf_map_update_elem(&TAPE, &ci, &zero, BPF_ANY); @ wm.bpf.c:183
10: (18) r1 = 0xffff0000ccc96000      ; R1_w=map_ptr(map=TAPE,ks=4,vs=8)
12: (bf) r3 = r6                      ; R3_w=fp-8 R6_w=fp-8
13: (b7) r4 = 0                       ; R4_w=0
14: (85) call bpf_map_update_elem#2   ; R0_w=scalar()
15: (bf) r2 = r10                     ; R2_w=fp0 R10=fp0
; __u64 zero = 0; @ wm.bpf.c:179
16: (07) r2 += -16                    ; R2_w=fp-16
; bpf_map_update_elem(&TAPE, &ei, &zero, BPF_ANY); @ wm.bpf.c:184
17: (18) r1 = 0xffff0000ccc96000      ; R1_w=map_ptr(map=TAPE,ks=4,vs=8)
19: (bf) r3 = r6                      ; R3_w=fp-8 R6_w=fp-8
20: (b7) r4 = 0                       ; R4_w=0
21: (85) call bpf_map_update_elem#2
mark_precise: frame0: last_idx 21 first_idx 0 subseq_idx -1 
mark_precise: frame0: regs= stack=-16 before 20: (b7) r4 = 0
mark_precise: frame0: regs= stack=-16 before 19: (bf) r3 = r6
mark_precise: frame0: regs= stack=-16 before 17: (18) r1 = 0xffff0000ccc96000
mark_precise: frame0: regs= stack=-16 before 16: (07) r2 += -16
mark_precise: frame0: regs= stack=-16 before 15: (bf) r2 = r10
mark_precise: frame0: regs= stack=-16 before 14: (85) call bpf_map_update_elem#2
mark_precise: frame0: regs= stack=-16 before 13: (b7) r4 = 0
mark_precise: frame0: regs= stack=-16 before 12: (bf) r3 = r6
mark_precise: frame0: regs= stack=-16 before 10: (18) r1 = 0xffff0000ccc96000
mark_precise: frame0: regs= stack=-16 before 9: (07) r6 += -8
mark_precise: frame0: regs= stack=-16 before 8: (bf) r6 = r10
mark_precise: frame0: regs= stack=-16 before 7: (07) r2 += -12
mark_precise: frame0: regs= stack=-16 before 6: (bf) r2 = r10
mark_precise: frame0: regs= stack=-16 before 5: (63) *(u32 *)(r10 -16) = r1
mark_precise: frame0: regs=r1 stack= before 4: (b7) r1 = 161
22: R0=scalar()
; bpf_loop(WORDLEN, step_cb, 0, 0); @ wm.bpf.c:185
22: (b7) r1 = 32                      ; R1_w=32
23: (18) r2 = 0x6                     ; R2_w=func()
25: (b7) r3 = 0                       ; R3_w=0
26: (b7) r4 = 0                       ; R4=0
27: (85) call bpf_loop#181
mark_precise: frame0: last_idx 27 first_idx 27 subseq_idx -1 
mark_precise: frame0: parent state regs=r4 stack=:  R0=scalar() R1_rw=32 R2_rw=func() R3_rw=0 R4_rw=P0 R6=fp-8 R10=fp0 fp-8=0 fp-16=mmmm161
mark_precise: frame0: last_idx 26 first_idx 22 subseq_idx 27 
mark_precise: frame0: regs=r4 stack= before 26: (b7) r4 = 0
mark_precise: frame0: last_idx 27 first_idx 27 subseq_idx -1 
mark_precise: frame0: parent state regs=r1 stack=:  R0=scalar() R1_rw=P32 R2_rw=func() R3_rw=0 R4_rw=P0 R6=fp-8 R10=fp0 fp-8=0 fp-16=mmmm161
mark_precise: frame0: last_idx 26 first_idx 22 subseq_idx 27 
mark_precise: frame0: regs=r1 stack= before 26: (b7) r4 = 0
mark_precise: frame0: regs=r1 stack= before 25: (b7) r3 = 0
mark_precise: frame0: regs=r1 stack= before 23: (18) r2 = 0x6
mark_precise: frame0: regs=r1 stack= before 22: (b7) r1 = 32
28: R0_w=scalar() R6=fp-8 R10=fp0 fp-8=0 fp-16=mmmm161
; return 0; @ wm.bpf.c:186
28: (b7) r0 = 0                       ; R0_w=0
29: (95) exit

from 27 to 30: frame1: R1=scalar() R2=0 R10=fp0 cb
30: frame1: R1=scalar() R2=0 R10=fp0 cb
; static long step_cb(__u32 i, void *data) @ wm.bpf.c:157
30: (bf) r7 = r1                      ; frame1: R1=scalar(id=1) R7_w=scalar(id=1) cb
31: (b7) r6 = 1                       ; frame1: R6_w=1 cb
32: (67) r1 <<= 32                    ; frame1: R1_w=scalar(smax=0x7fffffff00000000,umax=0xffffffff00000000,smin32=0,smax32=umax32=0,var_off=(0x0; 0xffffffff00000000)) cb
33: (77) r1 >>= 32                    ; frame1: R1_w=scalar(smin=0,smax=umax=0xffffffff,var_off=(0x0; 0xffffffff)) cb
; if (i >= WORDLEN) @ wm.bpf.c:160
34: (25) if r1 > 0x1f goto pc+739     ; frame1: R1_w=scalar(smin=smin32=0,smax=umax=smax32=umax32=31,var_off=(0x0; 0x1f)) cb
; __u64 xi = tape_read(X_BASE + i); @ wm.bpf.c:163
35: (bf) r1 = r7                      ; frame1: R1_w=scalar(id=1) R7_w=scalar(id=1) cb
36: (07) r1 += 16                     ; frame1: R1_w=scalar(id=1+16) cb
37: (63) *(u32 *)(r10 -16) = r1       ; frame1: R1_w=scalar(id=1+16) R10=fp0 fp-16=????scalar() cb
38: (bf) r2 = r10                     ; frame1: R2_w=fp0 R10=fp0 cb
39: (07) r2 += -16                    ; frame1: R2_w=fp-16 cb
; __u64 *p = bpf_map_lookup_elem(&TAPE, &idx); @ wm.bpf.c:42
40: (18) r1 = 0xffff0000ccc96000      ; frame1: R1_w=map_ptr(map=TAPE,ks=4,vs=8) cb
42: (85) call bpf_map_lookup_elem#1   ; frame1: R0=map_value_or_null(id=2,map=TAPE,ks=4,vs=8) cb
43: (b7) r6 = 0                       ; frame1: R6_w=0 cb
44: (b7) r1 = 0                       ; frame1: R1_w=0 cb
; return p ? (*p & 1ull) : 0; @ wm.bpf.c:43
45: (7b) *(u64 *)(r10 -48) = r1       ; frame1: R1_w=0 R10=fp0 fp-48_w=0 cb
46: (15) if r0 == 0x0 goto pc+3       ; frame1: R0=map_value(map=TAPE,ks=4,vs=8) cb
47: (79) r1 = *(u64 *)(r0 +0)         ; frame1: R0=map_value(map=TAPE,ks=4,vs=8) R1_w=scalar() cb
48: (57) r1 &= 1                      ; frame1: R1_w=scalar(smin=smin32=0,smax=umax=smax32=umax32=1,var_off=(0x0; 0x1)) cb
49: (7b) *(u64 *)(r10 -48) = r1       ; frame1: R1_w=scalar(id=3,smin=smin32=0,smax=umax=smax32=umax32=1,var_off=(0x0; 0x1)) R10=fp0 fp-48_w=scalar(id=3,smin=smin32=0,smax=umax=smax32=umax32=1,var_off=(0x0; 0x1)) cb
; __u64 yi = tape_read(Y_BASE + i); @ wm.bpf.c:164
50: (bf) r1 = r7                      ; frame1: R1_w=scalar(id=1) R7=scalar(id=1) cb
51: (47) r1 |= 64                     ; frame1: R1_w=scalar(smin=0x8000000000000040,umin=umin32=64,smin32=0x80000040,var_off=(0x40; 0xffffffffffffffbf)) cb
52: (63) *(u32 *)(r10 -16) = r1       ; frame1: R1_w=scalar(smin=0x8000000000000040,umin=umin32=64,smin32=0x80000040,var_off=(0x40; 0xffffffffffffffbf)) R10=fp0 fp-16=????scalar(smin=0x8000000000000040,umin=umin32=64,smin32=0x80000040,var_off=(0x40; 0xffffffffffffffbf)) cb
53: (bf) r2 = r10                     ; frame1: R2_w=fp0 R10=fp0 cb
;  @ wm.bpf.c:0
54: (07) r2 += -16                    ; frame1: R2_w=fp-16 cb
; __u64 *p = bpf_map_lookup_elem(&TAPE, &idx); @ wm.bpf.c:42
55: (18) r1 = 0xffff0000ccc96000      ; frame1: R1_w=map_ptr(map=TAPE,ks=4,vs=8) cb
57: (85) call bpf_map_lookup_elem#1   ; frame1: R0=map_value_or_null(id=4,map=TAPE,ks=4,vs=8) cb
; return p ? (*p & 1ull) : 0; @ wm.bpf.c:43
58: (15) if r0 == 0x0 goto pc+2       ; frame1: R0=map_value(map=TAPE,ks=4,vs=8) cb
59: (79) r6 = *(u64 *)(r0 +0)         ; frame1: R0=map_value(map=TAPE,ks=4,vs=8) R6_w=scalar() cb
60: (57) r6 &= 1                      ; frame1: R6_w=scalar(smin=smin32=0,smax=umax=smax32=umax32=1,var_off=(0x0; 0x1)) cb
61: (7b) *(u64 *)(r10 -80) = r6       ; frame1: R6_w=scalar(id=5,smin=smin32=0,smax=umax=smax32=umax32=1,var_off=(0x0; 0x1)) R10=fp0 fp-80_w=scalar(id=5,smin=smin32=0,smax=umax=smax32=umax32=1,var_off=(0x0; 0x1)) cb
62: (7b) *(u64 *)(r10 -56) = r7       ; frame1: R7=scalar(id=1) R10=fp0 fp-56_w=scalar(id=1) cb
63: (b7) r1 = 160                     ; frame1: R1_w=160 cb
64: (63) *(u32 *)(r10 -16) = r1       ; frame1: R1_w=160 R10=fp0 fp-16=????160 cb
65: (bf) r2 = r10                     ; frame1: R2_w=fp0 R10=fp0 cb
;  @ wm.bpf.c:0
66: (07) r2 += -16                    ; frame1: R2_w=fp-16 cb
; __u64 *p = bpf_map_lookup_elem(&TAPE, &idx); @ wm.bpf.c:42
67: (18) r1 = 0xffff0000ccc96000      ; frame1: R1_w=map_ptr(map=TAPE,ks=4,vs=8) cb
69: (85) call bpf_map_lookup_elem#1
mark_precise: frame1: last_idx 69 first_idx 58 subseq_idx -1 
mark_precise: frame1: regs= stack=-16 before 67: (18) r1 = 0xffff0000ccc96000
mark_precise: frame1: regs= stack=-16 before 66: (07) r2 += -16
mark_precise: frame1: regs= stack=-16 before 65: (bf) r2 = r10
mark_precise: frame1: regs= stack=-16 before 64: (63) *(u32 *)(r10 -16) = r1
mark_precise: frame1: regs=r1 stack= before 63: (b7) r1 = 160
70: frame1: R0=map_value(map=TAPE,ks=4,vs=8) cb
70: (b7) r1 = 0                       ; frame1: R1_w=0 cb
71: (b7) r2 = 0                       ; frame1: R2_w=0 cb
; return p ? (*p & 1ull) : 0; @ wm.bpf.c:43
72: (15) if r0 == 0x0 goto pc+2       ; frame1: R0=map_value(map=TAPE,ks=4,vs=8) cb
73: (79) r2 = *(u64 *)(r0 +0)         ; frame1: R0=map_value(map=TAPE,ks=4,vs=8) R2_w=scalar() cb
74: (57) r2 &= 1                      ; frame1: R2_w=scalar(smin=smin32=0,smax=umax=smax32=umax32=1,var_off=(0x0; 0x1)) cb
75: (7b) *(u64 *)(r10 -72) = r2       ; frame1: R2_w=scalar(id=6,smin=smin32=0,smax=umax=smax32=umax32=1,var_off=(0x0; 0x1)) R10=fp0 fp-72_w=scalar(id=6,smin=smin32=0,smax=umax=smax32=umax32=1,var_off=(0x0; 0x1)) cb
; __u64 d   = NAND_GATE(G0, a, b); @ wm.bpf.c:130
76: (63) *(u32 *)(r10 -20) = r1
mark_precise: frame1: last_idx 76 first_idx 70 subseq_idx -1 
mark_precise: frame1: regs=r1 stack= before 75: (7b) *(u64 *)(r10 -72) = r2
mark_precise: frame1: regs=r1 stack= before 74: (57) r2 &= 1
mark_precise: frame1: regs=r1 stack= before 73: (79) r2 = *(u64 *)(r0 +0)
mark_precise: frame1: regs=r1 stack= before 72: (15) if r0 == 0x0 goto pc+2
mark_precise: frame1: regs=r1 stack= before 71: (b7) r2 = 0
mark_precise: frame1: regs=r1 stack= before 70: (b7) r1 = 0
77: frame1: R1_w=0 R10=fp0 fp-24=0000???? cb
77: (b7) r9 = 1                       ; frame1: R9_w=1 cb
78: (63) *(u32 *)(r10 -24) = r9       ; frame1: R9_w=1 R10=fp0 fp-24=00001 cb
79: (7b) *(u64 *)(r10 -32) = r9       ; frame1: R9_w=1 R10=fp0 fp-32_w=1 cb
80: (bf) r7 = r10                     ; frame1: R7_w=fp0 R10=fp0 cb
;  @ wm.bpf.c:0
81: (07) r7 += -20                    ; frame1: R7_w=fp-20 cb
; __u64 d   = NAND_GATE(G0, a, b); @ wm.bpf.c:130
82: (18) r1 = 0xffff0000c8517000      ; frame1: R1_w=map_ptr(map=G0,ks=4,vs=8) cb
84: (bf) r2 = r7                      ; frame1: R2_w=fp-20 R7_w=fp-20 cb
85: (85) call bpf_map_delete_elem#3   ; frame1: R0=scalar() cb
86: (bf) r2 = r10                     ; frame1: R2_w=fp0 R10=fp0 cb
;  @ wm.bpf.c:0
87: (07) r2 += -24                    ; frame1: R2_w=fp-24 cb
; __u64 d   = NAND_GATE(G0, a, b); @ wm.bpf.c:130
88: (18) r1 = 0xffff0000c8517000      ; frame1: R1_w=map_ptr(map=G0,ks=4,vs=8) cb
90: (85) call bpf_map_delete_elem#3   ; frame1: R0_w=scalar() cb
91: (b7) r1 = 2                       ; frame1: R1_w=2 cb
92: (63) *(u32 *)(r10 -36) = r1       ; frame1: R1_w=2 R10=fp0 fp-40=mmmm???? cb
93: (bf) r2 = r10                     ; frame1: R2_w=fp0 R10=fp0 cb
;  @ wm.bpf.c:0
94: (07) r2 += -36                    ; frame1: R2_w=fp-36 cb
; __u64 d   = NAND_GATE(G0, a, b); @ wm.bpf.c:130
95: (18) r1 = 0xffff0000c8517000      ; frame1: R1_w=map_ptr(map=G0,ks=4,vs=8) cb
97: (85) call bpf_map_delete_elem#3   ; frame1: R0=scalar() cb
98: (bf) r6 = r10                     ; frame1: R6_w=fp0 R10=fp0 cb
;  @ wm.bpf.c:0
99: (07) r6 += -32                    ; frame1: R6_w=fp-32 cb
; __u64 d   = NAND_GATE(G0, a, b); @ wm.bpf.c:130
100: (18) r1 = 0xffff0000c8517000     ; frame1: R1_w=map_ptr(map=G0,ks=4,vs=8) cb
102: (bf) r2 = r7                     ; frame1: R2_w=fp-20 R7=fp-20 cb
103: (bf) r3 = r6                     ; frame1: R3_w=fp-32 R6_w=fp-32 cb
104: (b7) r4 = 1                      ; frame1: R4_w=1 cb
105: (85) call bpf_map_update_elem#2          ; frame1: R0_w=scalar() cb
106: (bf) r8 = r0                     ; frame1: R0_w=scalar(id=7) R8_w=scalar(id=7) cb
107: (61) r1 = *(u32 *)(r10 -20)      ; frame1: R1_w=0 R10=fp0 fp-24=00001 cb
108: (61) r2 = *(u32 *)(r10 -24)      ; frame1: R2_w=1 R10=fp0 fp-24=00001 cb
109: (1f) r2 -= r1                    ; frame1: R1_w=0 R2_w=1 cb
110: (79) r3 = *(u64 *)(r10 -48)      ; frame1: R3_w=scalar(id=3,smin=smin32=0,smax=umax=smax32=umax32=1,var_off=(0x0; 0x1)) R10=fp0 fp-48=scalar(id=3,smin=smin32=0,smax=umax=smax32=umax32=1,var_off=(0x0; 0x1)) cb
111: (2f) r2 *= r3                    ; frame1: R2_w=scalar(smin=smin32=0,smax=umax=smax32=umax32=1,var_off=(0x0; 0x1)) R3_w=scalar(id=3,smin=smin32=0,smax=umax=smax32=umax32=1,var_off=(0x0; 0x1)) cb
112: (0f) r2 += r1                    ; frame1: R1_w=0 R2_w=scalar(smin=smin32=0,smax=umax=smax32=umax32=1,var_off=(0x0; 0x1)) cb
113: (63) *(u32 *)(r10 -40) = r2      ; frame1: R2_w=scalar(id=8,smin=smin32=0,smax=umax=smax32=umax32=1,var_off=(0x0; 0x1)) R10=fp0 fp-40=mmmmscalar(id=8,smin=smin32=0,smax=umax=smax32=umax32=1,var_off=(0x0; 0x1)) cb
114: (bf) r2 = r10                    ; frame1: R2_w=fp0 R10=fp0 cb
;  @ wm.bpf.c:0
115: (07) r2 += -40                   ; frame1: R2_w=fp-40 cb
; __u64 d   = NAND_GATE(G0, a, b); @ wm.bpf.c:130
116: (18) r1 = 0xffff0000c8517000     ; frame1: R1_w=map_ptr(map=G0,ks=4,vs=8) cb
118: (bf) r3 = r6                     ; frame1: R3_w=fp-32 R6_w=fp-32 cb
119: (b7) r4 = 0                      ; frame1: R4_w=0 cb
120: (85) call bpf_map_update_elem#2          ; frame1: R0=scalar() cb
121: (4f) r8 |= r0                    ; frame1: R0=scalar() R8_w=scalar() cb
122: (18) r1 = 0xffff0000c8517000     ; frame1: R1_w=map_ptr(map=G0,ks=4,vs=8) cb
124: (bf) r2 = r7                     ; frame1: R2_w=fp-20 R7=fp-20 cb
125: (bf) r3 = r6                     ; frame1: R3_w=fp-32 R6=fp-32 cb
126: (b7) r4 = 0                      ; frame1: R4_w=0 cb
127: (85) call bpf_map_update_elem#2          ; frame1: R0_w=scalar() cb
128: (7b) *(u64 *)(r10 -64) = r0      ; frame1: R0_w=scalar(id=9) R10=fp0 fp-64_w=scalar(id=9) cb
129: (15) if r8 == 0x0 goto pc+20     ; frame1: R8_w=scalar(umin=1) cb
130: (b7) r1 = 161                    ; frame1: R1_w=161 cb
; __u32 idx = ERR_IDX; @ wm.bpf.c:54
131: (63) *(u32 *)(r10 -4) = r1       ; frame1: R1_w=161 R10=fp0 fp-8=mmmm???? cb
132: (bf) r2 = r10                    ; frame1: R2_w=fp0 R10=fp0 cb
;  @ wm.bpf.c:0
133: (07) r2 += -4                    ; frame1: R2_w=fp-4 cb
; __u64 *p = bpf_map_lookup_elem(&TAPE, &idx); @ wm.bpf.c:55
134: (18) r1 = 0xffff0000ccc96000     ; frame1: R1_w=map_ptr(map=TAPE,ks=4,vs=8) cb
136: (85) call bpf_map_lookup_elem#1          ; frame1: R0=map_value_or_null(id=10,map=TAPE,ks=4,vs=8) cb
137: (b7) r1 = 1                      ; frame1: R1_w=1 cb
; __u64 v = (p ? *p : 0) + 1; @ wm.bpf.c:56
138: (15) if r0 == 0x0 goto pc+2      ; frame1: R0=map_value(map=TAPE,ks=4,vs=8) cb
139: (79) r1 = *(u64 *)(r0 +0)        ; frame1: R0=map_value(map=TAPE,ks=4,vs=8) R1_w=scalar() cb
140: (07) r1 += 1                     ; frame1: R1_w=scalar() cb
141: (7b) *(u64 *)(r10 -16) = r1      ; frame1: R1_w=scalar(id=11) R10=fp0 fp-16_w=scalar(id=11) cb
142: (bf) r2 = r10                    ; frame1: R2_w=fp0 R10=fp0 cb
143: (07) r2 += -4                    ; frame1: R2_w=fp-4 cb
144: (bf) r3 = r10                    ; frame1: R3_w=fp0 R10=fp0 cb
145: (07) r3 += -16                   ; frame1: R3_w=fp-16 cb
; bpf_map_update_elem(&TAPE, &idx, &v, BPF_ANY); @ wm.bpf.c:57
146: (18) r1 = 0xffff0000ccc96000     ; frame1: R1_w=map_ptr(map=TAPE,ks=4,vs=8) cb
148: (b7) r4 = 0                      ; frame1: R4_w=0 cb
149: (85) call bpf_map_update_elem#2          ; frame1: R0=scalar() cb
150: (b7) r7 = 0                      ; frame1: R7_w=0 cb
; __u64 e   = NAND_GATE(G1, a, d); @ wm.bpf.c:131
151: (63) *(u32 *)(r10 -20) = r7
mark_precise: frame1: last_idx 151 first_idx 150 subseq_idx -1 
mark_precise: frame1: regs=r7 stack= before 150: (b7) r7 = 0
152: frame1: R7_w=0 R10=fp0 fp-24=0000mmmm cb
152: (63) *(u32 *)(r10 -24) = r9      ; frame1: R9=1 R10=fp0 fp-24=00001 cb
153: (7b) *(u64 *)(r10 -32) = r9      ; frame1: R9=1 R10=fp0 fp-32_w=1 cb
154: (bf) r8 = r10                    ; frame1: R8_w=fp0 R10=fp0 cb
;  @ wm.bpf.c:0
155: (07) r8 += -20                   ; frame1: R8_w=fp-20 cb
; __u64 e   = NAND_GATE(G1, a, d); @ wm.bpf.c:131
156: (18) r1 = 0xffff0000c8514800     ; frame1: R1_w=map_ptr(map=G1,ks=4,vs=8) cb
158: (bf) r2 = r8                     ; frame1: R2_w=fp-20 R8_w=fp-20 cb
159: (85) call bpf_map_delete_elem#3          ; frame1: R0_w=scalar() cb
160: (bf) r2 = r10                    ; frame1: R2_w=fp0 R10=fp0 cb
;  @ wm.bpf.c:0
161: (07) r2 += -24                   ; frame1: R2_w=fp-24 cb
; __u64 e   = NAND_GATE(G1, a, d); @ wm.bpf.c:131
162: (18) r1 = 0xffff0000c8514800     ; frame1: R1_w=map_ptr(map=G1,ks=4,vs=8) cb
164: (85) call bpf_map_delete_elem#3          ; frame1: R0=scalar() cb
165: (b7) r1 = 2                      ; frame1: R1_w=2 cb
166: (63) *(u32 *)(r10 -36) = r1      ; frame1: R1_w=2 R10=fp0 fp-40=mmmmmmmm cb
167: (bf) r2 = r10                    ; frame1: R2_w=fp0 R10=fp0 cb
;  @ wm.bpf.c:0
168: (07) r2 += -36                   ; frame1: R2_w=fp-36 cb
; __u64 e   = NAND_GATE(G1, a, d); @ wm.bpf.c:131
169: (18) r1 = 0xffff0000c8514800     ; frame1: R1_w=map_ptr(map=G1,ks=4,vs=8) cb
171: (85) call bpf_map_delete_elem#3          ; frame1: R0_w=scalar() cb
172: (bf) r6 = r10                    ; frame1: R6_w=fp0 R10=fp0 cb
;  @ wm.bpf.c:0
173: (07) r6 += -32                   ; frame1: R6_w=fp-32 cb
; __u64 e   = NAND_GATE(G1, a, d); @ wm.bpf.c:131
174: (18) r1 = 0xffff0000c8514800     ; frame1: R1_w=map_ptr(map=G1,ks=4,vs=8) cb
176: (bf) r2 = r8                     ; frame1: R2_w=fp-20 R8=fp-20 cb
177: (bf) r3 = r6                     ; frame1: R3_w=fp-32 R6_w=fp-32 cb
178: (b7) r4 = 1                      ; frame1: R4_w=1 cb
179: (85) call bpf_map_update_elem#2          ; frame1: R0=scalar() cb
180: (bf) r9 = r0                     ; frame1: R0=scalar(id=12) R9_w=scalar(id=12) cb
181: (61) r1 = *(u32 *)(r10 -20)      ; frame1: R1_w=0 R10=fp0 fp-24=00001 cb
182: (61) r2 = *(u32 *)(r10 -24)      ; frame1: R2_w=1 R10=fp0 fp-24=00001 cb
183: (1f) r2 -= r1                    ; frame1: R1_w=0 R2_w=1 cb
184: (79) r3 = *(u64 *)(r10 -48)      ; frame1: R3_w=scalar(id=3,smin=smin32=0,smax=umax=smax32=umax32=1,var_off=(0x0; 0x1)) R10=fp0 fp-48=scalar(id=3,smin=smin32=0,smax=umax=smax32=umax32=1,var_off=(0x0; 0x1)) cb
185: (2f) r2 *= r3                    ; frame1: R2_w=scalar(smin=smin32=0,smax=umax=smax32=umax32=1,var_off=(0x0; 0x1)) R3_w=scalar(id=3,smin=smin32=0,smax=umax=smax32=umax32=1,var_off=(0x0; 0x1)) cb
186: (0f) r2 += r1                    ; frame1: R1_w=0 R2_w=scalar(smin=smin32=0,smax=umax=smax32=umax32=1,var_off=(0x0; 0x1)) cb
187: (63) *(u32 *)(r10 -40) = r2      ; frame1: R2_w=scalar(id=13,smin=smin32=0,smax=umax=smax32=umax32=1,var_off=(0x0; 0x1)) R10=fp0 fp-40=mmmmscalar(id=13,smin=smin32=0,smax=umax=smax32=umax32=1,var_off=(0x0; 0x1)) cb
188: (bf) r2 = r10                    ; frame1: R2_w=fp0 R10=fp0 cb
;  @ wm.bpf.c:0
189: (07) r2 += -40                   ; frame1: R2_w=fp-40 cb
; __u64 e   = NAND_GATE(G1, a, d); @ wm.bpf.c:131
190: (18) r1 = 0xffff0000c8514800     ; frame1: R1_w=map_ptr(map=G1,ks=4,vs=8) cb
192: (bf) r3 = r6                     ; frame1: R3_w=fp-32 R6=fp-32 cb
193: (b7) r4 = 0                      ; frame1: R4_w=0 cb
194: (85) call bpf_map_update_elem#2          ; frame1: R0_w=scalar() cb
195: (4f) r9 |= r0                    ; frame1: R0_w=scalar() R9_w=scalar() cb
196: (18) r1 = 0xffff0000c8514800     ; frame1: R1_w=map_ptr(map=G1,ks=4,vs=8) cb
198: (bf) r2 = r8                     ; frame1: R2_w=fp-20 R8=fp-20 cb
199: (bf) r3 = r6                     ; frame1: R3_w=fp-32 R6=fp-32 cb
200: (b7) r4 = 0                      ; frame1: R4_w=0 cb
201: (85) call bpf_map_update_elem#2          ; frame1: R0=scalar() cb
202: (7b) *(u64 *)(r10 -48) = r0      ; frame1: R0=scalar(id=14) R10=fp0 fp-48_w=scalar(id=14) cb
203: (15) if r9 == 0x0 goto pc+20     ; frame1: R9=scalar(umin=1) cb
204: (b7) r1 = 161                    ; frame1: R1_w=161 cb
; __u32 idx = ERR_IDX; @ wm.bpf.c:54
205: (63) *(u32 *)(r10 -4) = r1       ; frame1: R1_w=161 R10=fp0 fp-8=mmmm???? cb
206: (bf) r2 = r10                    ; frame1: R2_w=fp0 R10=fp0 cb
;  @ wm.bpf.c:0
207: (07) r2 += -4                    ; frame1: R2_w=fp-4 cb
; __u64 *p = bpf_map_lookup_elem(&TAPE, &idx); @ wm.bpf.c:55
208: (18) r1 = 0xffff0000ccc96000     ; frame1: R1_w=map_ptr(map=TAPE,ks=4,vs=8) cb
210: (85) call bpf_map_lookup_elem#1          ; frame1: R0=map_value_or_null(id=15,map=TAPE,ks=4,vs=8) cb
211: (b7) r1 = 1                      ; frame1: R1_w=1 cb
; __u64 v = (p ? *p : 0) + 1; @ wm.bpf.c:56
212: (15) if r0 == 0x0 goto pc+2      ; frame1: R0=map_value(map=TAPE,ks=4,vs=8) cb
213: (79) r1 = *(u64 *)(r0 +0)        ; frame1: R0=map_value(map=TAPE,ks=4,vs=8) R1_w=scalar() cb
214: (07) r1 += 1                     ; frame1: R1_w=scalar() cb
215: (7b) *(u64 *)(r10 -16) = r1      ; frame1: R1_w=scalar(id=16) R10=fp0 fp-16_w=scalar(id=16) cb
216: (bf) r2 = r10                    ; frame1: R2_w=fp0 R10=fp0 cb
217: (07) r2 += -4                    ; frame1: R2_w=fp-4 cb
218: (bf) r3 = r10                    ; frame1: R3_w=fp0 R10=fp0 cb
219: (07) r3 += -16                   ; frame1: R3_w=fp-16 cb
; bpf_map_update_elem(&TAPE, &idx, &v, BPF_ANY); @ wm.bpf.c:57
220: (18) r1 = 0xffff0000ccc96000     ; frame1: R1_w=map_ptr(map=TAPE,ks=4,vs=8) cb
222: (b7) r4 = 0                      ; frame1: R4_w=0 cb
223: (85) call bpf_map_update_elem#2          ; frame1: R0=scalar() cb
; __u64 f   = NAND_GATE(G2, b, d); @ wm.bpf.c:132
224: (63) *(u32 *)(r10 -20) = r7
mark_precise: frame1: last_idx 224 first_idx 224 subseq_idx -1 
mark_precise: frame1: parent state regs=r7 stack=:  frame1: R0_w=scalar() R6=fp-32 R7_r=P0 R8=fp-20 R9=scalar(umin=1) R10=fp0 fp-8=mmmm???? fp-16_w=scalar(id=16) fp-24=00001 fp-32=1 fp-40=mmmmscalar(id=13,smin=smin32=0,smax=umax=smax32=umax32=1,var_off=(0x0; 0x1)) fp-48=scalar(id=14) fp-56=scalar(id=1) fp-64=scalar(id=9) fp-72=scalar(id=6,smin=smin32=0,smax=umax=smax32=umax32=1,var_off=(0x0; 0x1)) fp-80=scalar(id=5,smin=smin32=0,smax=umax=smax32=umax32=1,var_off=(0x0; 0x1)) cb
mark_precise: frame0: parent state regs= stack=:  R0=scalar() R1=32 R2=func() R3=0 R4=0 R6=fp-8 R10=fp0 fp-8=0 fp-16=mmmm161
mark_precise: frame1: last_idx 223 first_idx 211 subseq_idx 224 
mark_precise: frame1: regs=r7 stack= before 223: (85) call bpf_map_update_elem#2
mark_precise: frame1: regs=r7 stack= before 222: (b7) r4 = 0
mark_precise: frame1: regs=r7 stack= before 220: (18) r1 = 0xffff0000ccc96000
mark_precise: frame1: regs=r7 stack= before 219: (07) r3 += -16
mark_precise: frame1: regs=r7 stack= before 218: (bf) r3 = r10
mark_precise: frame1: regs=r7 stack= before 217: (07) r2 += -4
mark_precise: frame1: regs=r7 stack= before 216: (bf) r2 = r10
mark_precise: frame1: regs=r7 stack= before 215: (7b) *(u64 *)(r10 -16) = r1
mark_precise: frame1: regs=r7 stack= before 214: (07) r1 += 1
mark_precise: frame1: regs=r7 stack= before 213: (79) r1 = *(u64 *)(r0 +0)
mark_precise: frame1: regs=r7 stack= before 212: (15) if r0 == 0x0 goto pc+2
mark_precise: frame1: regs=r7 stack= before 211: (b7) r1 = 1
mark_precise: frame1: parent state regs=r7 stack=:  frame1: R0_rw=map_value_or_null(id=15,map=TAPE,ks=4,vs=8) R6=fp-32 R7_r=P0 R8=fp-20 R9=scalar(umin=1) R10=fp0 fp-8_r=mmmm???? fp-16=scalar(id=11) fp-24=00001 fp-32=1 fp-40=mmmmscalar(id=13,smin=smin32=0,smax=umax=smax32=umax32=1,var_off=(0x0; 0x1)) fp-48_w=scalar(id=14) fp-56=scalar(id=1) fp-64=scalar(id=9) fp-72=scalar(id=6,smin=smin32=0,smax=umax=smax32=umax32=1,var_off=(0x0; 0x1)) fp-80=scalar(id=5,smin=smin32=0,smax=umax=smax32=umax32=1,var_off=(0x0; 0x1)) cb
mark_precise: frame0: parent state regs= stack=:  R0=scalar() R1=32 R2=func() R3=0 R4=0 R6=fp-8 R10=fp0 fp-8=0 fp-16=mmmm161
mark_precise: frame1: last_idx 210 first_idx 202 subseq_idx 211 
mark_precise: frame1: regs=r7 stack= before 210: (85) call bpf_map_lookup_elem#1
mark_precise: frame1: regs=r7 stack= before 208: (18) r1 = 0xffff0000ccc96000
mark_precise: frame1: regs=r7 stack= before 207: (07) r2 += -4
mark_precise: frame1: regs=r7 stack= before 206: (bf) r2 = r10
mark_precise: frame1: regs=r7 stack= before 205: (63) *(u32 *)(r10 -4) = r1
mark_precise: frame1: regs=r7 stack= before 204: (b7) r1 = 161
mark_precise: frame1: regs=r7 stack= before 203: (15) if r9 == 0x0 goto pc+20
mark_precise: frame1: regs=r7 stack= before 202: (7b) *(u64 *)(r10 -48) = r0
mark_precise: frame1: parent state regs=r7 stack=:  frame1: R0_rw=scalar() R6=fp-32 R7_r=P0 R8=fp-20 R9_rw=scalar() R10=fp0 fp-8_r=mmmm???? fp-16=scalar(id=11) fp-24=00001 fp-32=1 fp-40=mmmmscalar(id=13,smin=smin32=0,smax=umax=smax32=umax32=1,var_off=(0x0; 0x1)) fp-48=scalar(id=3,smin=smin32=0,smax=umax=smax32=umax32=1,var_off=(0x0; 0x1)) fp-56=scalar(id=1) fp-64=scalar(id=9) fp-72=scalar(id=6,smin=smin32=0,smax=umax=smax32=umax32=1,var_off=(0x0; 0x1)) fp-80=scalar(id=5,smin=smin32=0,smax=umax=smax32=umax32=1,var_off=(0x0; 0x1)) cb
mark_precise: frame0: parent state regs= stack=:  R0=scalar() R1=32 R2=func() R3=0 R4=0 R6=fp-8 R10=fp0 fp-8=0 fp-16=mmmm161
mark_precise: frame1: last_idx 201 first_idx 180 subseq_idx 202 
mark_precise: frame1: regs=r7 stack= before 201: (85) call bpf_map_update_elem#2
mark_precise: frame1: regs=r7 stack= before 200: (b7) r4 = 0
mark_precise: frame1: regs=r7 stack= before 199: (bf) r3 = r6
mark_precise: frame1: regs=r7 stack= before 198: (bf) r2 = r8
mark_precise: frame1: regs=r7 stack= before 196: (18) r1 = 0xffff0000c8514800
mark_precise: frame1: regs=r7 stack= before 195: (4f) r9 |= r0
mark_precise: frame1: regs=r7 stack= before 194: (85) call bpf_map_update_elem#2
mark_precise: frame1: regs=r7 stack= before 193: (b7) r4 = 0
mark_precise: frame1: regs=r7 stack= before 192: (bf) r3 = r6
mark_precise: frame1: regs=r7 stack= before 190: (18) r1 = 0xffff0000c8514800
mark_precise: frame1: regs=r7 stack= before 189: (07) r2 += -40
mark_precise: frame1: regs=r7 stack= before 188: (bf) r2 = r10
mark_precise: frame1: regs=r7 stack= before 187: (63) *(u32 *)(r10 -40) = r2
mark_precise: frame1: regs=r7 stack= before 186: (0f) r2 += r1
mark_precise: frame1: regs=r7 stack= before 185: (2f) r2 *= r3
mark_precise: frame1: regs=r7 stack= before 184: (79) r3 = *(u64 *)(r10 -48)
mark_precise: frame1: regs=r7 stack= before 183: (1f) r2 -= r1
mark_precise: frame1: regs=r7 stack= before 182: (61) r2 = *(u32 *)(r10 -24)
mark_precise: frame1: regs=r7 stack= before 181: (61) r1 = *(u32 *)(r10 -20)
mark_precise: frame1: regs=r7 stack= before 180: (bf) r9 = r0
mark_precise: frame1: parent state regs=r7 stack=:  frame1: R0_rw=scalar() R6_rw=fp-32 R7_r=P0 R8_r=fp-20 R9=1 R10=fp0 fp-8_r=mmmm???? fp-16=scalar(id=11) fp-24_r=00001 fp-32_r=1 fp-40_r=mmmmmmmm fp-48_r=scalar(id=3,smin=smin32=0,smax=umax=smax32=umax32=1,var_off=(0x0; 0x1)) fp-56=scalar(id=1) fp-64=scalar(id=9) fp-72=scalar(id=6,smin=smin32=0,smax=umax=smax32=umax32=1,var_off=(0x0; 0x1)) fp-80=scalar(id=5,smin=smin32=0,smax=umax=smax32=umax32=1,var_off=(0x0; 0x1)) cb
mark_precise: frame0: parent state regs= stack=:  R0=scalar() R1=32 R2=func() R3=0 R4=0 R6=fp-8 R10=fp0 fp-8=0 fp-16=mmmm161
mark_precise: frame1: last_idx 179 first_idx 165 subseq_idx 180 
mark_precise: frame1: regs=r7 stack= before 179: (85) call bpf_map_update_elem#2
mark_precise: frame1: regs=r7 stack= before 178: (b7) r4 = 1
mark_precise: frame1: regs=r7 stack= before 177: (bf) r3 = r6
mark_precise: frame1: regs=r7 stack= before 176: (bf) r2 = r8
mark_precise: frame1: regs=r7 stack= before 174: (18) r1 = 0xffff0000c8514800
mark_precise: frame1: regs=r7 stack= before 173: (07) r6 += -32
mark_precise: frame1: regs=r7 stack= before 172: (bf) r6 = r10
mark_precise: frame1: regs=r7 stack= before 171: (85) call bpf_map_delete_elem#3
mark_precise: frame1: regs=r7 stack= before 169: (18) r1 = 0xffff0000c8514800
mark_precise: frame1: regs=r7 stack= before 168: (07) r2 += -36
mark_precise: frame1: regs=r7 stack= before 167: (bf) r2 = r10
mark_precise: frame1: regs=r7 stack= before 166: (63) *(u32 *)(r10 -36) = r1
mark_precise: frame1: regs=r7 stack= before 165: (b7) r1 = 2
mark_precise: frame1: parent state regs=r7 stack=:  frame1: R0_w=scalar() R6=fp-32 R7_rw=P0 R8_rw=fp-20 R9=1 R10=fp0 fp-8_r=mmmm???? fp-16=scalar(id=11) fp-24_r=00001 fp-32_rw=1 fp-40_r=mmmmscalar(id=8,smin=smin32=0,smax=umax=smax32=umax32=1,var_off=(0x0; 0x1)) fp-48_r=scalar(id=3,smin=smin32=0,smax=umax=smax32=umax32=1,var_off=(0x0; 0x1)) fp-56=scalar(id=1) fp-64=scalar(id=9) fp-72=scalar(id=6,smin=smin32=0,smax=umax=smax32=umax32=1,var_off=(0x0; 0x1)) fp-80=scalar(id=5,smin=smin32=0,smax=umax=smax32=umax32=1,var_off=(0x0; 0x1)) cb
mark_precise: frame0: parent state regs= stack=:  R0=scalar() R1=32 R2=func() R3=0 R4=0 R6=fp-8 R10=fp0 fp-8=0 fp-16=mmmm161
mark_precise: frame1: last_idx 164 first_idx 150 subseq_idx 165 
mark_precise: frame1: regs=r7 stack= before 164: (85) call bpf_map_delete_elem#3
mark_precise: frame1: regs=r7 stack= before 162: (18) r1 = 0xffff0000c8514800
mark_precise: frame1: regs=r7 stack= before 161: (07) r2 += -24
mark_precise: frame1: regs=r7 stack= before 160: (bf) r2 = r10
mark_precise: frame1: regs=r7 stack= before 159: (85) call bpf_map_delete_elem#3
mark_precise: frame1: regs=r7 stack= before 158: (bf) r2 = r8
mark_precise: frame1: regs=r7 stack= before 156: (18) r1 = 0xffff0000c8514800
mark_precise: frame1: regs=r7 stack= before 155: (07) r8 += -20
mark_precise: frame1: regs=r7 stack= before 154: (bf) r8 = r10
mark_precise: frame1: regs=r7 stack= before 153: (7b) *(u64 *)(r10 -32) = r9
mark_precise: frame1: regs=r7 stack= before 152: (63) *(u32 *)(r10 -24) = r9
mark_precise: frame1: regs=r7 stack= before 151: (63) *(u32 *)(r10 -20) = r7
mark_precise: frame1: regs=r7 stack= before 150: (b7) r7 = 0
225: frame1: R7=0 R10=fp0 fp-24=0000mmmm cb
225: (b7) r1 = 1                      ; frame1: R1_w=1 cb
226: (63) *(u32 *)(r10 -24) = r1      ; frame1: R1_w=1 R10=fp0 fp-24=00001 cb
227: (7b) *(u64 *)(r10 -32) = r1      ; frame1: R1_w=1 R10=fp0 fp-32_w=1 cb
228: (bf) r9 = r10                    ; frame1: R9_w=fp0 R10=fp0 cb
;  @ wm.bpf.c:0
229: (07) r9 += -20                   ; frame1: R9_w=fp-20 cb
; __u64 f   = NAND_GATE(G2, b, d); @ wm.bpf.c:132
230: (18) r1 = 0xffff0000c8516c00     ; frame1: R1_w=map_ptr(map=G2,ks=4,vs=8) cb
232: (bf) r2 = r9                     ; frame1: R2_w=fp-20 R9_w=fp-20 cb
233: (85) call bpf_map_delete_elem#3          ; frame1: R0_w=scalar() cb
234: (bf) r8 = r10                    ; frame1: R8_w=fp0 R10=fp0 cb
;  @ wm.bpf.c:0
235: (07) r8 += -24                   ; frame1: R8_w=fp-24 cb
; __u64 f   = NAND_GATE(G2, b, d); @ wm.bpf.c:132
236: (18) r1 = 0xffff0000c8516c00     ; frame1: R1_w=map_ptr(map=G2,ks=4,vs=8) cb
238: (bf) r2 = r8                     ; frame1: R2_w=fp-24 R8_w=fp-24 cb
239: (85) call bpf_map_delete_elem#3          ; frame1: R0=scalar() cb
240: (b7) r1 = 2                      ; frame1: R1_w=2 cb
241: (63) *(u32 *)(r10 -36) = r1      ; frame1: R1_w=2 R10=fp0 fp-40=mmmmmmmm cb
242: (bf) r2 = r10                    ; frame1: R2_w=fp0 R10=fp0 cb
;  @ wm.bpf.c:0
243: (07) r2 += -36                   ; frame1: R2_w=fp-36 cb
; __u64 f   = NAND_GATE(G2, b, d); @ wm.bpf.c:132
244: (18) r1 = 0xffff0000c8516c00     ; frame1: R1_w=map_ptr(map=G2,ks=4,vs=8) cb
246: (85) call bpf_map_delete_elem#3          ; frame1: R0_w=scalar() cb
247: (bf) r6 = r10                    ; frame1: R6_w=fp0 R10=fp0 cb
;  @ wm.bpf.c:0
248: (07) r6 += -32                   ; frame1: R6_w=fp-32 cb
; __u64 f   = NAND_GATE(G2, b, d); @ wm.bpf.c:132
249: (18) r1 = 0xffff0000c8516c00     ; frame1: R1_w=map_ptr(map=G2,ks=4,vs=8) cb
251: (bf) r2 = r9                     ; frame1: R2_w=fp-20 R9=fp-20 cb
252: (bf) r3 = r6                     ; frame1: R3_w=fp-32 R6_w=fp-32 cb
253: (b7) r4 = 1                      ; frame1: R4_w=1 cb
254: (85) call bpf_map_update_elem#2          ; frame1: R0=scalar() cb
255: (bf) r7 = r0                     ; frame1: R0=scalar(id=17) R7_w=scalar(id=17) cb
256: (bf) r1 = r9                     ; frame1: R1_w=fp-20 R9=fp-20 cb
257: (79) r2 = *(u64 *)(r10 -80)      ; frame1: R2_w=scalar(id=5,smin=smin32=0,smax=umax=smax32=umax32=1,var_off=(0x0; 0x1)) R10=fp0 fp-80=scalar(id=5,smin=smin32=0,smax=umax=smax32=umax32=1,var_off=(0x0; 0x1)) cb
258: (15) if r2 == 0x0 goto pc+1      ; frame1: R2_w=1 cb
259: (bf) r1 = r8                     ; frame1: R1_w=fp-24 R8=fp-24 cb
260: (61) r1 = *(u32 *)(r1 +0)        ; frame1: R1_w=1 fp-24=00001 cb
261: (63) *(u32 *)(r10 -40) = r1      ; frame1: R1_w=1 R10=fp0 fp-40=mmmm1 cb
262: (bf) r2 = r10                    ; frame1: R2_w=fp0 R10=fp0 cb
263: (07) r2 += -40                   ; frame1: R2_w=fp-40 cb
264: (18) r1 = 0xffff0000c8516c00     ; frame1: R1_w=map_ptr(map=G2,ks=4,vs=8) cb
266: (bf) r3 = r6                     ; frame1: R3_w=fp-32 R6=fp-32 cb
267: (b7) r4 = 0                      ; frame1: R4_w=0 cb
268: (85) call bpf_map_update_elem#2          ; frame1: R0=scalar() cb
269: (bf) r8 = r0                     ; frame1: R0=scalar(id=18) R8_w=scalar(id=18) cb
270: (18) r1 = 0xffff0000c8516c00     ; frame1: R1_w=map_ptr(map=G2,ks=4,vs=8) cb
272: (bf) r2 = r9                     ; frame1: R2_w=fp-20 R9=fp-20 cb
273: (bf) r3 = r6                     ; frame1: R3_w=fp-32 R6=fp-32 cb
274: (b7) r4 = 0                      ; frame1: R4_w=0 cb
275: (85) call bpf_map_update_elem#2          ; frame1: R0_w=scalar() cb
276: (4f) r7 |= r8                    ; frame1: R7_w=scalar() R8_w=scalar(id=18) cb
277: (15) if r7 == 0x0 goto pc+20     ; frame1: R7_w=scalar(umin=1) cb
278: (b7) r1 = 161                    ; frame1: R1_w=161 cb
; __u32 idx = ERR_IDX; @ wm.bpf.c:54
279: (63) *(u32 *)(r10 -4) = r1       ; frame1: R1_w=161 R10=fp0 fp-8=mmmm???? cb
280: (bf) r2 = r10                    ; frame1: R2_w=fp0 R10=fp0 cb
;  @ wm.bpf.c:0
281: (07) r2 += -4                    ; frame1: R2_w=fp-4 cb
; __u64 *p = bpf_map_lookup_elem(&TAPE, &idx); @ wm.bpf.c:55
282: (18) r1 = 0xffff0000ccc96000     ; frame1: R1_w=map_ptr(map=TAPE,ks=4,vs=8) cb
284: (85) call bpf_map_lookup_elem#1          ; frame1: R0=map_value_or_null(id=19,map=TAPE,ks=4,vs=8) cb
285: (b7) r1 = 1                      ; frame1: R1_w=1 cb
; __u64 v = (p ? *p : 0) + 1; @ wm.bpf.c:56
286: (15) if r0 == 0x0 goto pc+2      ; frame1: R0=map_value(map=TAPE,ks=4,vs=8) cb
287: (79) r1 = *(u64 *)(r0 +0)        ; frame1: R0=map_value(map=TAPE,ks=4,vs=8) R1_w=scalar() cb
288: (07) r1 += 1                     ; frame1: R1_w=scalar() cb
289: (7b) *(u64 *)(r10 -16) = r1      ; frame1: R1_w=scalar(id=20) R10=fp0 fp-16_w=scalar(id=20) cb
290: (bf) r2 = r10                    ; frame1: R2_w=fp0 R10=fp0 cb
291: (07) r2 += -4                    ; frame1: R2_w=fp-4 cb
292: (bf) r3 = r10                    ; frame1: R3_w=fp0 R10=fp0 cb
293: (07) r3 += -16                   ; frame1: R3_w=fp-16 cb
; bpf_map_update_elem(&TAPE, &idx, &v, BPF_ANY); @ wm.bpf.c:57
294: (18) r1 = 0xffff0000ccc96000     ; frame1: R1_w=map_ptr(map=TAPE,ks=4,vs=8) cb
296: (b7) r4 = 0                      ; frame1: R4_w=0 cb
297: (85) call bpf_map_update_elem#2          ; frame1: R0=scalar() cb
298: (b7) r1 = 0                      ; frame1: R1_w=0 cb
; __u64 xab = NAND_GATE(G3, e, f); @ wm.bpf.c:133
299: (63) *(u32 *)(r10 -20) = r1
mark_precise: frame1: last_idx 299 first_idx 298 subseq_idx -1 
mark_precise: frame1: regs=r1 stack= before 298: (b7) r1 = 0
300: frame1: R1_w=0 R10=fp0 fp-24=0000mmmm cb
300: (b7) r1 = 1                      ; frame1: R1_w=1 cb
301: (63) *(u32 *)(r10 -24) = r1      ; frame1: R1_w=1 R10=fp0 fp-24=00001 cb
302: (7b) *(u64 *)(r10 -32) = r1      ; frame1: R1_w=1 R10=fp0 fp-32_w=1 cb
303: (bf) r8 = r10                    ; frame1: R8_w=fp0 R10=fp0 cb
304: (07) r8 += -20                   ; frame1: R8_w=fp-20 cb
305: (18) r1 = 0xffff0000c8517c00     ; frame1: R1_w=map_ptr(map=G3,ks=4,vs=8) cb
307: (bf) r2 = r8                     ; frame1: R2_w=fp-20 R8_w=fp-20 cb
308: (85) call bpf_map_delete_elem#3          ; frame1: R0_w=scalar() cb
309: (bf) r9 = r10                    ; frame1: R9_w=fp0 R10=fp0 cb
310: (07) r9 += -24                   ; frame1: R9_w=fp-24 cb
311: (18) r1 = 0xffff0000c8517c00     ; frame1: R1_w=map_ptr(map=G3,ks=4,vs=8) cb
313: (bf) r2 = r9                     ; frame1: R2_w=fp-24 R9_w=fp-24 cb
314: (85) call bpf_map_delete_elem#3          ; frame1: R0=scalar() cb
315: (b7) r1 = 2                      ; frame1: R1_w=2 cb
316: (63) *(u32 *)(r10 -36) = r1      ; frame1: R1_w=2 R10=fp0 fp-40=mmmmmmmm cb
317: (bf) r2 = r10                    ; frame1: R2_w=fp0 R10=fp0 cb
318: (07) r2 += -36                   ; frame1: R2_w=fp-36 cb
319: (18) r1 = 0xffff0000c8517c00     ; frame1: R1_w=map_ptr(map=G3,ks=4,vs=8) cb
321: (85) call bpf_map_delete_elem#3          ; frame1: R0_w=scalar() cb
322: (bf) r6 = r10                    ; frame1: R6_w=fp0 R10=fp0 cb
323: (07) r6 += -32                   ; frame1: R6_w=fp-32 cb
324: (18) r1 = 0xffff0000c8517c00     ; frame1: R1_w=map_ptr(map=G3,ks=4,vs=8) cb
326: (bf) r2 = r8                     ; frame1: R2_w=fp-20 R8=fp-20 cb
327: (bf) r3 = r6                     ; frame1: R3_w=fp-32 R6_w=fp-32 cb
328: (b7) r4 = 1                      ; frame1: R4_w=1 cb
329: (85) call bpf_map_update_elem#2          ; frame1: R0=scalar() cb
330: (bf) r7 = r0                     ; frame1: R0=scalar(id=21) R7_w=scalar(id=21) cb
331: (79) r1 = *(u64 *)(r10 -48)      ; frame1: R1_w=scalar(id=14) R10=fp0 fp-48=scalar(id=14) cb
332: (15) if r1 == 0x0 goto pc+1      ; frame1: R1_w=scalar(id=14,umin=1) cb
333: (bf) r9 = r8                     ; frame1: R8=fp-20 R9_w=fp-20 cb
334: (61) r1 = *(u32 *)(r9 +0)        ; frame1: R1_w=0 R9_w=fp-20 fp-24=00001 cb
335: (63) *(u32 *)(r10 -40) = r1      ; frame1: R1_w=0 R10=fp0 fp-40=mmmm0 cb
336: (bf) r2 = r10                    ; frame1: R2_w=fp0 R10=fp0 cb
337: (07) r2 += -40                   ; frame1: R2_w=fp-40 cb
338: (18) r1 = 0xffff0000c8517c00     ; frame1: R1_w=map_ptr(map=G3,ks=4,vs=8) cb
340: (bf) r3 = r6                     ; frame1: R3_w=fp-32 R6=fp-32 cb
341: (b7) r4 = 0                      ; frame1: R4_w=0 cb
342: (85) call bpf_map_update_elem#2          ; frame1: R0=scalar() cb
343: (4f) r7 |= r0                    ; frame1: R0=scalar() R7_w=scalar() cb
344: (18) r1 = 0xffff0000c8517c00     ; frame1: R1_w=map_ptr(map=G3,ks=4,vs=8) cb
346: (bf) r2 = r8                     ; frame1: R2_w=fp-20 R8=fp-20 cb
347: (bf) r3 = r6                     ; frame1: R3_w=fp-32 R6=fp-32 cb
348: (b7) r4 = 0                      ; frame1: R4_w=0 cb
349: (85) call bpf_map_update_elem#2          ; frame1: R0_w=scalar() cb
350: (7b) *(u64 *)(r10 -48) = r0      ; frame1: R0_w=scalar(id=22) R10=fp0 fp-48_w=scalar(id=22) cb
351: (15) if r7 == 0x0 goto pc+20     ; frame1: R7_w=scalar(umin=1) cb
352: (b7) r1 = 161                    ; frame1: R1_w=161 cb
; __u32 idx = ERR_IDX; @ wm.bpf.c:54
353: (63) *(u32 *)(r10 -4) = r1       ; frame1: R1_w=161 R10=fp0 fp-8=mmmm???? cb
354: (bf) r2 = r10                    ; frame1: R2_w=fp0 R10=fp0 cb
;  @ wm.bpf.c:0
355: (07) r2 += -4                    ; frame1: R2_w=fp-4 cb
; __u64 *p = bpf_map_lookup_elem(&TAPE, &idx); @ wm.bpf.c:55
356: (18) r1 = 0xffff0000ccc96000     ; frame1: R1_w=map_ptr(map=TAPE,ks=4,vs=8) cb
358: (85) call bpf_map_lookup_elem#1          ; frame1: R0=map_value_or_null(id=23,map=TAPE,ks=4,vs=8) cb
359: (b7) r1 = 1                      ; frame1: R1_w=1 cb
; __u64 v = (p ? *p : 0) + 1; @ wm.bpf.c:56
360: (15) if r0 == 0x0 goto pc+2      ; frame1: R0=map_value(map=TAPE,ks=4,vs=8) cb
361: (79) r1 = *(u64 *)(r0 +0)        ; frame1: R0=map_value(map=TAPE,ks=4,vs=8) R1_w=scalar() cb
362: (07) r1 += 1                     ; frame1: R1_w=scalar() cb
363: (7b) *(u64 *)(r10 -16) = r1      ; frame1: R1_w=scalar(id=24) R10=fp0 fp-16_w=scalar(id=24) cb
364: (bf) r2 = r10                    ; frame1: R2_w=fp0 R10=fp0 cb
365: (07) r2 += -4                    ; frame1: R2_w=fp-4 cb
366: (bf) r3 = r10                    ; frame1: R3_w=fp0 R10=fp0 cb
367: (07) r3 += -16                   ; frame1: R3_w=fp-16 cb
; bpf_map_update_elem(&TAPE, &idx, &v, BPF_ANY); @ wm.bpf.c:57
368: (18) r1 = 0xffff0000ccc96000     ; frame1: R1_w=map_ptr(map=TAPE,ks=4,vs=8) cb
370: (b7) r4 = 0                      ; frame1: R4_w=0 cb
371: (85) call bpf_map_update_elem#2          ; frame1: R0=scalar() cb
372: (b7) r1 = 0                      ; frame1: R1_w=0 cb
; __u64 g   = NAND_GATE(G4, xab, cin); @ wm.bpf.c:134
373: (63) *(u32 *)(r10 -20) = r1
mark_precise: frame1: last_idx 373 first_idx 372 subseq_idx -1 
mark_precise: frame1: regs=r1 stack= before 372: (b7) r1 = 0
374: frame1: R1_w=0 R10=fp0 fp-24=0000mmmm cb
374: (b7) r1 = 1                      ; frame1: R1_w=1 cb
375: (63) *(u32 *)(r10 -24) = r1      ; frame1: R1_w=1 R10=fp0 fp-24=00001 cb
376: (7b) *(u64 *)(r10 -32) = r1      ; frame1: R1_w=1 R10=fp0 fp-32_w=1 cb
377: (bf) r8 = r10                    ; frame1: R8_w=fp0 R10=fp0 cb
;  @ wm.bpf.c:0
378: (07) r8 += -20                   ; frame1: R8_w=fp-20 cb
; __u64 g   = NAND_GATE(G4, xab, cin); @ wm.bpf.c:134
379: (18) r1 = 0xffff0000c5ddd800     ; frame1: R1_w=map_ptr(map=G4,ks=4,vs=8) cb
381: (bf) r2 = r8                     ; frame1: R2_w=fp-20 R8_w=fp-20 cb
382: (85) call bpf_map_delete_elem#3          ; frame1: R0_w=scalar() cb
383: (bf) r9 = r10                    ; frame1: R9_w=fp0 R10=fp0 cb
;  @ wm.bpf.c:0
384: (07) r9 += -24                   ; frame1: R9_w=fp-24 cb
; __u64 g   = NAND_GATE(G4, xab, cin); @ wm.bpf.c:134
385: (18) r1 = 0xffff0000c5ddd800     ; frame1: R1_w=map_ptr(map=G4,ks=4,vs=8) cb
387: (bf) r2 = r9                     ; frame1: R2_w=fp-24 R9_w=fp-24 cb
388: (85) call bpf_map_delete_elem#3          ; frame1: R0=scalar() cb
389: (b7) r1 = 2                      ; frame1: R1_w=2 cb
390: (63) *(u32 *)(r10 -36) = r1      ; frame1: R1_w=2 R10=fp0 fp-40=mmmmmmmm cb
391: (bf) r2 = r10                    ; frame1: R2_w=fp0 R10=fp0 cb
;  @ wm.bpf.c:0
392: (07) r2 += -36                   ; frame1: R2_w=fp-36 cb
; __u64 g   = NAND_GATE(G4, xab, cin); @ wm.bpf.c:134
393: (18) r1 = 0xffff0000c5ddd800     ; frame1: R1_w=map_ptr(map=G4,ks=4,vs=8) cb
395: (85) call bpf_map_delete_elem#3          ; frame1: R0_w=scalar() cb
396: (bf) r6 = r10                    ; frame1: R6_w=fp0 R10=fp0 cb
;  @ wm.bpf.c:0
397: (07) r6 += -32                   ; frame1: R6_w=fp-32 cb
; __u64 g   = NAND_GATE(G4, xab, cin); @ wm.bpf.c:134
398: (18) r1 = 0xffff0000c5ddd800     ; frame1: R1_w=map_ptr(map=G4,ks=4,vs=8) cb
400: (bf) r2 = r8                     ; frame1: R2_w=fp-20 R8=fp-20 cb
401: (bf) r3 = r6                     ; frame1: R3_w=fp-32 R6_w=fp-32 cb
402: (b7) r4 = 1                      ; frame1: R4_w=1 cb
403: (85) call bpf_map_update_elem#2          ; frame1: R0=scalar() cb
404: (bf) r7 = r0                     ; frame1: R0=scalar(id=25) R7_w=scalar(id=25) cb
405: (79) r1 = *(u64 *)(r10 -48)      ; frame1: R1_w=scalar(id=22) R10=fp0 fp-48=scalar(id=22) cb
406: (15) if r1 == 0x0 goto pc+1      ; frame1: R1_w=scalar(id=22,umin=1) cb
407: (bf) r9 = r8                     ; frame1: R8=fp-20 R9_w=fp-20 cb
408: (61) r1 = *(u32 *)(r9 +0)        ; frame1: R1_w=0 R9_w=fp-20 fp-24=00001 cb
409: (63) *(u32 *)(r10 -40) = r1      ; frame1: R1_w=0 R10=fp0 fp-40=mmmm0 cb
410: (bf) r2 = r10                    ; frame1: R2_w=fp0 R10=fp0 cb
411: (07) r2 += -40                   ; frame1: R2_w=fp-40 cb
412: (18) r1 = 0xffff0000c5ddd800     ; frame1: R1_w=map_ptr(map=G4,ks=4,vs=8) cb
414: (bf) r3 = r6                     ; frame1: R3_w=fp-32 R6=fp-32 cb
415: (b7) r4 = 0                      ; frame1: R4_w=0 cb
416: (85) call bpf_map_update_elem#2          ; frame1: R0=scalar() cb
417: (bf) r9 = r0                     ; frame1: R0=scalar(id=26) R9_w=scalar(id=26) cb
418: (18) r1 = 0xffff0000c5ddd800     ; frame1: R1_w=map_ptr(map=G4,ks=4,vs=8) cb
420: (bf) r2 = r8                     ; frame1: R2_w=fp-20 R8=fp-20 cb
421: (bf) r3 = r6                     ; frame1: R3_w=fp-32 R6=fp-32 cb
422: (b7) r4 = 0                      ; frame1: R4_w=0 cb
423: (85) call bpf_map_update_elem#2          ; frame1: R0_w=scalar() cb
424: (4f) r7 |= r9                    ; frame1: R7_w=scalar() R9_w=scalar(id=26) cb
425: (15) if r7 == 0x0 goto pc+20     ; frame1: R7_w=scalar(umin=1) cb
426: (b7) r1 = 161                    ; frame1: R1_w=161 cb
; __u32 idx = ERR_IDX; @ wm.bpf.c:54
427: (63) *(u32 *)(r10 -4) = r1       ; frame1: R1_w=161 R10=fp0 fp-8=mmmm???? cb
428: (bf) r2 = r10                    ; frame1: R2_w=fp0 R10=fp0 cb
;  @ wm.bpf.c:0
429: (07) r2 += -4                    ; frame1: R2_w=fp-4 cb
; __u64 *p = bpf_map_lookup_elem(&TAPE, &idx); @ wm.bpf.c:55
430: (18) r1 = 0xffff0000ccc96000     ; frame1: R1_w=map_ptr(map=TAPE,ks=4,vs=8) cb
432: (85) call bpf_map_lookup_elem#1          ; frame1: R0=map_value_or_null(id=27,map=TAPE,ks=4,vs=8) cb
433: (b7) r1 = 1                      ; frame1: R1_w=1 cb
; __u64 v = (p ? *p : 0) + 1; @ wm.bpf.c:56
434: (15) if r0 == 0x0 goto pc+2      ; frame1: R0=map_value(map=TAPE,ks=4,vs=8) cb
435: (79) r1 = *(u64 *)(r0 +0)        ; frame1: R0=map_value(map=TAPE,ks=4,vs=8) R1_w=scalar() cb
436: (07) r1 += 1                     ; frame1: R1_w=scalar() cb
437: (7b) *(u64 *)(r10 -16) = r1      ; frame1: R1_w=scalar(id=28) R10=fp0 fp-16_w=scalar(id=28) cb
438: (bf) r2 = r10                    ; frame1: R2_w=fp0 R10=fp0 cb
439: (07) r2 += -4                    ; frame1: R2_w=fp-4 cb
440: (bf) r3 = r10                    ; frame1: R3_w=fp0 R10=fp0 cb
441: (07) r3 += -16                   ; frame1: R3_w=fp-16 cb
; bpf_map_update_elem(&TAPE, &idx, &v, BPF_ANY); @ wm.bpf.c:57
442: (18) r1 = 0xffff0000ccc96000     ; frame1: R1_w=map_ptr(map=TAPE,ks=4,vs=8) cb
444: (b7) r4 = 0                      ; frame1: R4_w=0 cb
445: (85) call bpf_map_update_elem#2          ; frame1: R0=scalar() cb
446: (b7) r1 = 0                      ; frame1: R1_w=0 cb
; __u64 h   = NAND_GATE(G5, xab, g); @ wm.bpf.c:135
447: (63) *(u32 *)(r10 -20) = r1
mark_precise: frame1: last_idx 447 first_idx 446 subseq_idx -1 
mark_precise: frame1: regs=r1 stack= before 446: (b7) r1 = 0
448: frame1: R1_w=0 R10=fp0 fp-24=0000mmmm cb
448: (b7) r1 = 1                      ; frame1: R1_w=1 cb
449: (63) *(u32 *)(r10 -24) = r1      ; frame1: R1_w=1 R10=fp0 fp-24=00001 cb
450: (7b) *(u64 *)(r10 -32) = r1      ; frame1: R1_w=1 R10=fp0 fp-32_w=1 cb
451: (bf) r9 = r10                    ; frame1: R9_w=fp0 R10=fp0 cb
452: (07) r9 += -20                   ; frame1: R9_w=fp-20 cb
453: (18) r1 = 0xffff0000c5ddd000     ; frame1: R1_w=map_ptr(map=G5,ks=4,vs=8) cb
455: (bf) r2 = r9                     ; frame1: R2_w=fp-20 R9_w=fp-20 cb
456: (85) call bpf_map_delete_elem#3          ; frame1: R0_w=scalar() cb
457: (bf) r8 = r10                    ; frame1: R8_w=fp0 R10=fp0 cb
458: (07) r8 += -24                   ; frame1: R8_w=fp-24 cb
459: (18) r1 = 0xffff0000c5ddd000     ; frame1: R1_w=map_ptr(map=G5,ks=4,vs=8) cb
461: (bf) r2 = r8                     ; frame1: R2_w=fp-24 R8_w=fp-24 cb
462: (85) call bpf_map_delete_elem#3          ; frame1: R0=scalar() cb
463: (b7) r1 = 2                      ; frame1: R1_w=2 cb
464: (63) *(u32 *)(r10 -36) = r1      ; frame1: R1_w=2 R10=fp0 fp-40=mmmmmmmm cb
465: (bf) r2 = r10                    ; frame1: R2_w=fp0 R10=fp0 cb
466: (07) r2 += -36                   ; frame1: R2_w=fp-36 cb
467: (18) r1 = 0xffff0000c5ddd000     ; frame1: R1_w=map_ptr(map=G5,ks=4,vs=8) cb
469: (85) call bpf_map_delete_elem#3          ; frame1: R0_w=scalar() cb
470: (bf) r6 = r10                    ; frame1: R6_w=fp0 R10=fp0 cb
471: (07) r6 += -32                   ; frame1: R6_w=fp-32 cb
472: (18) r1 = 0xffff0000c5ddd000     ; frame1: R1_w=map_ptr(map=G5,ks=4,vs=8) cb
474: (bf) r2 = r9                     ; frame1: R2_w=fp-20 R9=fp-20 cb
475: (bf) r3 = r6                     ; frame1: R3_w=fp-32 R6_w=fp-32 cb
476: (b7) r4 = 1                      ; frame1: R4_w=1 cb
477: (85) call bpf_map_update_elem#2          ; frame1: R0=scalar() cb
478: (bf) r7 = r0                     ; frame1: R0=scalar(id=29) R7_w=scalar(id=29) cb
479: (79) r1 = *(u64 *)(r10 -48)      ; frame1: R1_w=scalar(id=22,umin=1) R10=fp0 fp-48=scalar(id=22,umin=1) cb
480: (15) if r1 == 0x0 goto pc+1
mark_precise: frame1: last_idx 480 first_idx 478 subseq_idx -1 
mark_precise: frame1: regs=r1 stack= before 479: (79) r1 = *(u64 *)(r10 -48)
mark_precise: frame1: regs= stack=-48 before 478: (bf) r7 = r0
mark_precise: frame1: parent state regs= stack=-48:  frame1: R0_rw=scalar() R6_w=fp-32 R7=scalar(umin=1) R8=fp-24 R9=fp-20 R10=fp0 fp-8=mmmm???? fp-16=scalar(id=28) fp-24=00001 fp-32=1 fp-40=mmmmmmmm fp-48_r=Pscalar(id=22,umin=1) fp-56=scalar(id=1) fp-64=scalar(id=9) fp-72=scalar(id=6,smin=smin32=0,smax=umax=smax32=umax32=1,var_off=(0x0; 0x1)) fp-80=1 cb
mark_precise: frame0: parent state regs= stack=:  R0=scalar() R1=32 R2=func() R3=0 R4=0 R6=fp-8 R10=fp0 fp-8=0 fp-16=mmmm161
mark_precise: frame1: last_idx 477 first_idx 463 subseq_idx 478 
mark_precise: frame1: regs= stack=-48 before 477: (85) call bpf_map_update_elem#2
mark_precise: frame1: regs= stack=-48 before 476: (b7) r4 = 1
mark_precise: frame1: regs= stack=-48 before 475: (bf) r3 = r6
mark_precise: frame1: regs= stack=-48 before 474: (bf) r2 = r9
mark_precise: frame1: regs= stack=-48 before 472: (18) r1 = 0xffff0000c5ddd000
mark_precise: frame1: regs= stack=-48 before 471: (07) r6 += -32
mark_precise: frame1: regs= stack=-48 before 470: (bf) r6 = r10
mark_precise: frame1: regs= stack=-48 before 469: (85) call bpf_map_delete_elem#3
mark_precise: frame1: regs= stack=-48 before 467: (18) r1 = 0xffff0000c5ddd000
mark_precise: frame1: regs= stack=-48 before 466: (07) r2 += -36
mark_precise: frame1: regs= stack=-48 before 465: (bf) r2 = r10
mark_precise: frame1: regs= stack=-48 before 464: (63) *(u32 *)(r10 -36) = r1
mark_precise: frame1: regs= stack=-48 before 463: (b7) r1 = 2
mark_precise: frame1: parent state regs= stack=-48:  frame1: R0_w=scalar() R6=fp-32 R7=scalar(umin=1) R8_w=fp-24 R9_rw=fp-20 R10=fp0 fp-8=mmmm???? fp-16=scalar(id=28) fp-24_r=00001 fp-32_rw=1 fp-40_r=mmmm0 fp-48_r=Pscalar(id=22,umin=1) fp-56=scalar(id=1) fp-64=scalar(id=9) fp-72=scalar(id=6,smin=smin32=0,smax=umax=smax32=umax32=1,var_off=(0x0; 0x1)) fp-80=1 cb
mark_precise: frame0: parent state regs= stack=:  R0=scalar() R1=32 R2=func() R3=0 R4=0 R6=fp-8 R10=fp0 fp-8=0 fp-16=mmmm161
mark_precise: frame1: last_idx 462 first_idx 446 subseq_idx 463 
mark_precise: frame1: regs= stack=-48 before 462: (85) call bpf_map_delete_elem#3
mark_precise: frame1: regs= stack=-48 before 461: (bf) r2 = r8
mark_precise: frame1: regs= stack=-48 before 459: (18) r1 = 0xffff0000c5ddd000
mark_precise: frame1: regs= stack=-48 before 458: (07) r8 += -24
mark_precise: frame1: regs= stack=-48 before 457: (bf) r8 = r10
mark_precise: frame1: regs= stack=-48 before 456: (85) call bpf_map_delete_elem#3
mark_precise: frame1: regs= stack=-48 before 455: (bf) r2 = r9
mark_precise: frame1: regs= stack=-48 before 453: (18) r1 = 0xffff0000c5ddd000
mark_precise: frame1: regs= stack=-48 before 452: (07) r9 += -20
mark_precise: frame1: regs= stack=-48 before 451: (bf) r9 = r10
mark_precise: frame1: regs= stack=-48 before 450: (7b) *(u64 *)(r10 -32) = r1
mark_precise: frame1: regs= stack=-48 before 449: (63) *(u32 *)(r10 -24) = r1
mark_precise: frame1: regs= stack=-48 before 448: (b7) r1 = 1
mark_precise: frame1: regs= stack=-48 before 447: (63) *(u32 *)(r10 -20) = r1
mark_precise: frame1: regs= stack=-48 before 446: (b7) r1 = 0
mark_precise: frame1: parent state regs= stack=-48:  frame1: R0_w=scalar() R6=fp-32 R7=scalar(umin=1) R8=fp-20 R9=scalar(id=26) R10=fp0 fp-8=mmmm???? fp-16_w=scalar(id=28) fp-24_r=00001 fp-32=1 fp-40_r=mmmm0 fp-48_r=Pscalar(id=22,umin=1) fp-56=scalar(id=1) fp-64=scalar(id=9) fp-72=scalar(id=6,smin=smin32=0,smax=umax=smax32=umax32=1,var_off=(0x0; 0x1)) fp-80=1 cb
mark_precise: frame0: parent state regs= stack=:  R0=scalar() R1=32 R2=func() R3=0 R4=0 R6=fp-8 R10=fp0 fp-8=0 fp-16=mmmm161
mark_precise: frame1: last_idx 445 first_idx 433 subseq_idx 446 
mark_precise: frame1: regs= stack=-48 before 445: (85) call bpf_map_update_elem#2
mark_precise: frame1: regs= stack=-48 before 444: (b7) r4 = 0
mark_precise: frame1: regs= stack=-48 before 442: (18) r1 = 0xffff0000ccc96000
mark_precise: frame1: regs= stack=-48 before 441: (07) r3 += -16
mark_precise: frame1: regs= stack=-48 before 440: (bf) r3 = r10
mark_precise: frame1: regs= stack=-48 before 439: (07) r2 += -4
mark_precise: frame1: regs= stack=-48 before 438: (bf) r2 = r10
mark_precise: frame1: regs= stack=-48 before 437: (7b) *(u64 *)(r10 -16) = r1
mark_precise: frame1: regs= stack=-48 before 436: (07) r1 += 1
mark_precise: frame1: regs= stack=-48 before 435: (79) r1 = *(u64 *)(r0 +0)
mark_precise: frame1: regs= stack=-48 before 434: (15) if r0 == 0x0 goto pc+2
mark_precise: frame1: regs= stack=-48 before 433: (b7) r1 = 1
mark_precise: frame1: parent state regs= stack=-48:  frame1: R0_rw=map_value_or_null(id=27,map=TAPE,ks=4,vs=8) R6=fp-32 R7_w=scalar(umin=1) R8=fp-20 R9_w=scalar(id=26) R10=fp0 fp-8_r=mmmm???? fp-16=scalar(id=24) fp-24_r=00001 fp-32=1 fp-40_r=mmmm0 fp-48_r=Pscalar(id=22,umin=1) fp-56=scalar(id=1) fp-64=scalar(id=9) fp-72=scalar(id=6,smin=smin32=0,smax=umax=smax32=umax32=1,var_off=(0x0; 0x1)) fp-80=1 cb
mark_precise: frame0: parent state regs= stack=:  R0=scalar() R1=32 R2=func() R3=0 R4=0 R6=fp-8 R10=fp0 fp-8=0 fp-16=mmmm161
mark_precise: frame1: last_idx 432 first_idx 417 subseq_idx 433 
mark_precise: frame1: regs= stack=-48 before 432: (85) call bpf_map_lookup_elem#1
mark_precise: frame1: regs= stack=-48 before 430: (18) r1 = 0xffff0000ccc96000
mark_precise: frame1: regs= stack=-48 before 429: (07) r2 += -4
mark_precise: frame1: regs= stack=-48 before 428: (bf) r2 = r10
mark_precise: frame1: regs= stack=-48 before 427: (63) *(u32 *)(r10 -4) = r1
mark_precise: frame1: regs= stack=-48 before 426: (b7) r1 = 161
mark_precise: frame1: regs= stack=-48 before 425: (15) if r7 == 0x0 goto pc+20
mark_precise: frame1: regs= stack=-48 before 424: (4f) r7 |= r9
mark_precise: frame1: regs= stack=-48 before 423: (85) call bpf_map_update_elem#2
mark_precise: frame1: regs= stack=-48 before 422: (b7) r4 = 0
mark_precise: frame1: regs= stack=-48 before 421: (bf) r3 = r6
mark_precise: frame1: regs= stack=-48 before 420: (bf) r2 = r8
mark_precise: frame1: regs= stack=-48 before 418: (18) r1 = 0xffff0000c5ddd800
mark_precise: frame1: regs= stack=-48 before 417: (bf) r9 = r0
mark_precise: frame1: parent state regs= stack=-48:  frame1: R0_rw=scalar() R6_r=fp-32 R7_rw=scalar(id=25) R8_r=fp-20 R9_w=fp-20 R10=fp0 fp-8_r=mmmm???? fp-16=scalar(id=24) fp-24_r=00001 fp-32_r=1 fp-40_r=mmmm0 fp-48_r=Pscalar(id=22,umin=1) fp-56=scalar(id=1) fp-64=scalar(id=9) fp-72=scalar(id=6,smin=smin32=0,smax=umax=smax32=umax32=1,var_off=(0x0; 0x1)) fp-80=1 cb
mark_precise: frame0: parent state regs= stack=:  R0=scalar() R1=32 R2=func() R3=0 R4=0 R6=fp-8 R10=fp0 fp-8=0 fp-16=mmmm161
mark_precise: frame1: last_idx 416 first_idx 404 subseq_idx 417 
mark_precise: frame1: regs= stack=-48 before 416: (85) call bpf_map_update_elem#2
mark_precise: frame1: regs= stack=-48 before 415: (b7) r4 = 0
mark_precise: frame1: regs= stack=-48 before 414: (bf) r3 = r6
mark_precise: frame1: regs= stack=-48 before 412: (18) r1 = 0xffff0000c5ddd800
mark_precise: frame1: regs= stack=-48 before 411: (07) r2 += -40
mark_precise: frame1: regs= stack=-48 before 410: (bf) r2 = r10
mark_precise: frame1: regs= stack=-48 before 409: (63) *(u32 *)(r10 -40) = r1
mark_precise: frame1: regs= stack=-48 before 408: (61) r1 = *(u32 *)(r9 +0)
mark_precise: frame1: regs= stack=-48 before 407: (bf) r9 = r8
mark_precise: frame1: regs= stack=-48 before 406: (15) if r1 == 0x0 goto pc+1
mark_precise: frame1: regs=r1 stack=-48 before 405: (79) r1 = *(u64 *)(r10 -48)
mark_precise: frame1: regs= stack=-48 before 404: (bf) r7 = r0
mark_precise: frame1: parent state regs= stack=-48:  frame1: R0_rw=scalar() R6_rw=fp-32 R7=scalar(umin=1) R8_r=fp-20 R9=fp-24 R10=fp0 fp-8_r=mmmm???? fp-16=scalar(id=24) fp-24_r=00001 fp-32_r=1 fp-40_r=mmmmmmmm fp-48_r=Pscalar(id=22) fp-56=scalar(id=1) fp-64=scalar(id=9) fp-72=scalar(id=6,smin=smin32=0,smax=umax=smax32=umax32=1,var_off=(0x0; 0x1)) fp-80=1 cb
mark_precise: frame0: parent state regs= stack=:  R0=scalar() R1=32 R2=func() R3=0 R4=0 R6=fp-8 R10=fp0 fp-8=0 fp-16=mmmm161
mark_precise: frame1: last_idx 403 first_idx 389 subseq_idx 404 
mark_precise: frame1: regs= stack=-48 before 403: (85) call bpf_map_update_elem#2
mark_precise: frame1: regs= stack=-48 before 402: (b7) r4 = 1
mark_precise: frame1: regs= stack=-48 before 401: (bf) r3 = r6
mark_precise: frame1: regs= stack=-48 before 400: (bf) r2 = r8
mark_precise: frame1: regs= stack=-48 before 398: (18) r1 = 0xffff0000c5ddd800
mark_precise: frame1: regs= stack=-48 before 397: (07) r6 += -32
mark_precise: frame1: regs= stack=-48 before 396: (bf) r6 = r10
mark_precise: frame1: regs= stack=-48 before 395: (85) call bpf_map_delete_elem#3
mark_precise: frame1: regs= stack=-48 before 393: (18) r1 = 0xffff0000c5ddd800
mark_precise: frame1: regs= stack=-48 before 392: (07) r2 += -36
mark_precise: frame1: regs= stack=-48 before 391: (bf) r2 = r10
mark_precise: frame1: regs= stack=-48 before 390: (63) *(u32 *)(r10 -36) = r1
mark_precise: frame1: regs= stack=-48 before 389: (b7) r1 = 2
mark_precise: frame1: parent state regs= stack=-48:  frame1: R0_w=scalar() R6=fp-32 R7=scalar(umin=1) R8_rw=fp-20 R9_w=fp-24 R10=fp0 fp-8_r=mmmm???? fp-16=scalar(id=24) fp-24_r=00001 fp-32_rw=1 fp-40_r=mmmm0 fp-48_r=Pscalar(id=22) fp-56=scalar(id=1) fp-64=scalar(id=9) fp-72=scalar(id=6,smin=smin32=0,smax=umax=smax32=umax32=1,var_off=(0x0; 0x1)) fp-80=1 cb
mark_precise: frame0: parent state regs= stack=:  R0=scalar() R1=32 R2=func() R3=0 R4=0 R6=fp-8 R10=fp0 fp-8=0 fp-16=mmmm161
mark_precise: frame1: last_idx 388 first_idx 372 subseq_idx 389 
mark_precise: frame1: regs= stack=-48 before 388: (85) call bpf_map_delete_elem#3
mark_precise: frame1: regs= stack=-48 before 387: (bf) r2 = r9
mark_precise: frame1: regs= stack=-48 before 385: (18) r1 = 0xffff0000c5ddd800
mark_precise: frame1: regs= stack=-48 before 384: (07) r9 += -24
mark_precise: frame1: regs= stack=-48 before 383: (bf) r9 = r10
mark_precise: frame1: regs= stack=-48 before 382: (85) call bpf_map_delete_elem#3
mark_precise: frame1: regs= stack=-48 before 381: (bf) r2 = r8
mark_precise: frame1: regs= stack=-48 before 379: (18) r1 = 0xffff0000c5ddd800
mark_precise: frame1: regs= stack=-48 before 378: (07) r8 += -20
mark_precise: frame1: regs= stack=-48 before 377: (bf) r8 = r10
mark_precise: frame1: regs= stack=-48 before 376: (7b) *(u64 *)(r10 -32) = r1
mark_precise: frame1: regs= stack=-48 before 375: (63) *(u32 *)(r10 -24) = r1
mark_precise: frame1: regs= stack=-48 before 374: (b7) r1 = 1
mark_precise: frame1: regs= stack=-48 before 373: (63) *(u32 *)(r10 -20) = r1
mark_precise: frame1: regs= stack=-48 before 372: (b7) r1 = 0
mark_precise: frame1: parent state regs= stack=-48:  frame1: R0_w=scalar() R6=fp-32 R7=scalar(umin=1) R8=fp-20 R9=fp-20 R10=fp0 fp-8_r=mmmm???? fp-16_w=scalar(id=24) fp-24_r=00001 fp-32=1 fp-40_r=mmmm0 fp-48_r=Pscalar(id=22) fp-56=scalar(id=1) fp-64=scalar(id=9) fp-72=scalar(id=6,smin=smin32=0,smax=umax=smax32=umax32=1,var_off=(0x0; 0x1)) fp-80=1 cb
mark_precise: frame0: parent state regs= stack=:  R0=scalar() R1=32 R2=func() R3=0 R4=0 R6=fp-8 R10=fp0 fp-8=0 fp-16=mmmm161
mark_precise: frame1: last_idx 371 first_idx 359 subseq_idx 372 
mark_precise: frame1: regs= stack=-48 before 371: (85) call bpf_map_update_elem#2
mark_precise: frame1: regs= stack=-48 before 370: (b7) r4 = 0
mark_precise: frame1: regs= stack=-48 before 368: (18) r1 = 0xffff0000ccc96000
mark_precise: frame1: regs= stack=-48 before 367: (07) r3 += -16
mark_precise: frame1: regs= stack=-48 before 366: (bf) r3 = r10
mark_precise: frame1: regs= stack=-48 before 365: (07) r2 += -4
mark_precise: frame1: regs= stack=-48 before 364: (bf) r2 = r10
mark_precise: frame1: regs= stack=-48 before 363: (7b) *(u64 *)(r10 -16) = r1
mark_precise: frame1: regs= stack=-48 before 362: (07) r1 += 1
mark_precise: frame1: regs= stack=-48 before 361: (79) r1 = *(u64 *)(r0 +0)
mark_precise: frame1: regs= stack=-48 before 360: (15) if r0 == 0x0 goto pc+2
mark_precise: frame1: regs= stack=-48 before 359: (b7) r1 = 1
mark_precise: frame1: parent state regs= stack=-48:  frame1: R0_rw=map_value_or_null(id=23,map=TAPE,ks=4,vs=8) R6=fp-32 R7_w=scalar(umin=1) R8=fp-20 R9=fp-20 R10=fp0 fp-8_r=mmmm???? fp-16=scalar(id=20) fp-24_r=00001 fp-32=1 fp-40_r=mmmm0 fp-48_rw=Pscalar(id=22) fp-56=scalar(id=1) fp-64=scalar(id=9) fp-72=scalar(id=6,smin=smin32=0,smax=umax=smax32=umax32=1,var_off=(0x0; 0x1)) fp-80=1 cb
mark_precise: frame0: parent state regs= stack=:  R0=scalar() R1=32 R2=func() R3=0 R4=0 R6=fp-8 R10=fp0 fp-8=0 fp-16=mmmm161
mark_precise: frame1: last_idx 358 first_idx 343 subseq_idx 359 
mark_precise: frame1: regs= stack=-48 before 358: (85) call bpf_map_lookup_elem#1
mark_precise: frame1: regs= stack=-48 before 356: (18) r1 = 0xffff0000ccc96000
mark_precise: frame1: regs= stack=-48 before 355: (07) r2 += -4
mark_precise: frame1: regs= stack=-48 before 354: (bf) r2 = r10
mark_precise: frame1: regs= stack=-48 before 353: (63) *(u32 *)(r10 -4) = r1
mark_precise: frame1: regs= stack=-48 before 352: (b7) r1 = 161
mark_precise: frame1: regs= stack=-48 before 351: (15) if r7 == 0x0 goto pc+20
mark_precise: frame1: regs= stack=-48 before 350: (7b) *(u64 *)(r10 -48) = r0
mark_precise: frame1: regs=r0 stack= before 349: (85) call bpf_map_update_elem#2
480: frame1: R1_w=scalar(id=22,umin=1) cb
481: (bf) r8 = r9                     ; frame1: R8_w=fp-20 R9=fp-20 cb
482: (61) r1 = *(u32 *)(r8 +0)        ; frame1: R1_w=0 R8_w=fp-20 fp-24=00001 cb
483: (63) *(u32 *)(r10 -40) = r1      ; frame1: R1_w=0 R10=fp0 fp-40=mmmm0 cb
484: (bf) r2 = r10                    ; frame1: R2_w=fp0 R10=fp0 cb
485: (07) r2 += -40                   ; frame1: R2_w=fp-40 cb
486: (18) r1 = 0xffff0000c5ddd000     ; frame1: R1_w=map_ptr(map=G5,ks=4,vs=8) cb
488: (bf) r3 = r6                     ; frame1: R3_w=fp-32 R6=fp-32 cb
489: (b7) r4 = 0                      ; frame1: R4_w=0 cb
490: (85) call bpf_map_update_elem#2          ; frame1: R0=scalar() cb
491: (4f) r7 |= r0                    ; frame1: R0=scalar() R7_w=scalar() cb
492: (18) r1 = 0xffff0000c5ddd000     ; frame1: R1_w=map_ptr(map=G5,ks=4,vs=8) cb
494: (bf) r2 = r9                     ; frame1: R2_w=fp-20 R9=fp-20 cb
495: (bf) r3 = r6                     ; frame1: R3_w=fp-32 R6=fp-32 cb
496: (b7) r4 = 0                      ; frame1: R4_w=0 cb
497: (85) call bpf_map_update_elem#2          ; frame1: R0_w=scalar() cb
498: (7b) *(u64 *)(r10 -48) = r0      ; frame1: R0_w=scalar(id=30) R10=fp0 fp-48_w=scalar(id=30) cb
499: (15) if r7 == 0x0 goto pc+20     ; frame1: R7_w=scalar(umin=1) cb
500: (b7) r1 = 161                    ; frame1: R1_w=161 cb
; __u32 idx = ERR_IDX; @ wm.bpf.c:54
501: (63) *(u32 *)(r10 -4) = r1       ; frame1: R1_w=161 R10=fp0 fp-8=mmmm???? cb
502: (bf) r2 = r10                    ; frame1: R2_w=fp0 R10=fp0 cb
;  @ wm.bpf.c:0
503: (07) r2 += -4                    ; frame1: R2_w=fp-4 cb
; __u64 *p = bpf_map_lookup_elem(&TAPE, &idx); @ wm.bpf.c:55
504: (18) r1 = 0xffff0000ccc96000     ; frame1: R1_w=map_ptr(map=TAPE,ks=4,vs=8) cb
506: (85) call bpf_map_lookup_elem#1          ; frame1: R0=map_value_or_null(id=31,map=TAPE,ks=4,vs=8) cb
507: (b7) r1 = 1                      ; frame1: R1_w=1 cb
; __u64 v = (p ? *p : 0) + 1; @ wm.bpf.c:56
508: (15) if r0 == 0x0 goto pc+2      ; frame1: R0=map_value(map=TAPE,ks=4,vs=8) cb
509: (79) r1 = *(u64 *)(r0 +0)        ; frame1: R0=map_value(map=TAPE,ks=4,vs=8) R1_w=scalar() cb
510: (07) r1 += 1                     ; frame1: R1_w=scalar() cb
511: (7b) *(u64 *)(r10 -16) = r1      ; frame1: R1_w=scalar(id=32) R10=fp0 fp-16_w=scalar(id=32) cb
512: (bf) r2 = r10                    ; frame1: R2_w=fp0 R10=fp0 cb
513: (07) r2 += -4                    ; frame1: R2_w=fp-4 cb
514: (bf) r3 = r10                    ; frame1: R3_w=fp0 R10=fp0 cb
515: (07) r3 += -16                   ; frame1: R3_w=fp-16 cb
; bpf_map_update_elem(&TAPE, &idx, &v, BPF_ANY); @ wm.bpf.c:57
516: (18) r1 = 0xffff0000ccc96000     ; frame1: R1_w=map_ptr(map=TAPE,ks=4,vs=8) cb
518: (b7) r4 = 0                      ; frame1: R4_w=0 cb
519: (85) call bpf_map_update_elem#2          ; frame1: R0=scalar() cb
520: (b7) r1 = 0                      ; frame1: R1_w=0 cb
; __u64 i   = NAND_GATE(G6, cin, g); @ wm.bpf.c:136
521: (63) *(u32 *)(r10 -20) = r1
mark_precise: frame1: last_idx 521 first_idx 520 subseq_idx -1 
mark_precise: frame1: regs=r1 stack= before 520: (b7) r1 = 0
522: frame1: R1_w=0 R10=fp0 fp-24=0000mmmm cb
522: (b7) r1 = 1                      ; frame1: R1_w=1 cb
523: (63) *(u32 *)(r10 -24) = r1      ; frame1: R1_w=1 R10=fp0 fp-24=00001 cb
524: (7b) *(u64 *)(r10 -32) = r1      ; frame1: R1_w=1 R10=fp0 fp-32_w=1 cb
525: (bf) r9 = r10                    ; frame1: R9_w=fp0 R10=fp0 cb
;  @ wm.bpf.c:0
526: (07) r9 += -20                   ; frame1: R9_w=fp-20 cb
; __u64 i   = NAND_GATE(G6, cin, g); @ wm.bpf.c:136
527: (18) r1 = 0xffff0000c5ddf400     ; frame1: R1_w=map_ptr(map=G6,ks=4,vs=8) cb
529: (bf) r2 = r9                     ; frame1: R2_w=fp-20 R9_w=fp-20 cb
530: (85) call bpf_map_delete_elem#3          ; frame1: R0_w=scalar() cb
531: (bf) r8 = r10                    ; frame1: R8_w=fp0 R10=fp0 cb
;  @ wm.bpf.c:0
532: (07) r8 += -24                   ; frame1: R8_w=fp-24 cb
; __u64 i   = NAND_GATE(G6, cin, g); @ wm.bpf.c:136
533: (18) r1 = 0xffff0000c5ddf400     ; frame1: R1_w=map_ptr(map=G6,ks=4,vs=8) cb
535: (bf) r2 = r8                     ; frame1: R2_w=fp-24 R8_w=fp-24 cb
536: (85) call bpf_map_delete_elem#3          ; frame1: R0=scalar() cb
537: (b7) r1 = 2                      ; frame1: R1_w=2 cb
538: (63) *(u32 *)(r10 -36) = r1      ; frame1: R1_w=2 R10=fp0 fp-40=mmmmmmmm cb
539: (bf) r2 = r10                    ; frame1: R2_w=fp0 R10=fp0 cb
;  @ wm.bpf.c:0
540: (07) r2 += -36                   ; frame1: R2_w=fp-36 cb
; __u64 i   = NAND_GATE(G6, cin, g); @ wm.bpf.c:136
541: (18) r1 = 0xffff0000c5ddf400     ; frame1: R1_w=map_ptr(map=G6,ks=4,vs=8) cb
543: (85) call bpf_map_delete_elem#3          ; frame1: R0_w=scalar() cb
544: (bf) r6 = r10                    ; frame1: R6_w=fp0 R10=fp0 cb
;  @ wm.bpf.c:0
545: (07) r6 += -32                   ; frame1: R6_w=fp-32 cb
; __u64 i   = NAND_GATE(G6, cin, g); @ wm.bpf.c:136
546: (18) r1 = 0xffff0000c5ddf400     ; frame1: R1_w=map_ptr(map=G6,ks=4,vs=8) cb
548: (bf) r2 = r9                     ; frame1: R2_w=fp-20 R9=fp-20 cb
549: (bf) r3 = r6                     ; frame1: R3_w=fp-32 R6_w=fp-32 cb
550: (b7) r4 = 1                      ; frame1: R4_w=1 cb
551: (85) call bpf_map_update_elem#2          ; frame1: R0=scalar() cb
552: (bf) r7 = r0                     ; frame1: R0=scalar(id=33) R7_w=scalar(id=33) cb
553: (bf) r1 = r9                     ; frame1: R1_w=fp-20 R9=fp-20 cb
554: (79) r2 = *(u64 *)(r10 -72)      ; frame1: R2_w=scalar(id=6,smin=smin32=0,smax=umax=smax32=umax32=1,var_off=(0x0; 0x1)) R10=fp0 fp-72=scalar(id=6,smin=smin32=0,smax=umax=smax32=umax32=1,var_off=(0x0; 0x1)) cb
555: (15) if r2 == 0x0 goto pc+1      ; frame1: R2_w=1 cb
556: (bf) r1 = r8                     ; frame1: R1_w=fp-24 R8=fp-24 cb
557: (61) r1 = *(u32 *)(r1 +0)        ; frame1: R1_w=1 fp-24=00001 cb
558: (63) *(u32 *)(r10 -40) = r1      ; frame1: R1_w=1 R10=fp0 fp-40=mmmm1 cb
559: (bf) r2 = r10                    ; frame1: R2_w=fp0 R10=fp0 cb
560: (07) r2 += -40                   ; frame1: R2_w=fp-40 cb
561: (18) r1 = 0xffff0000c5ddf400     ; frame1: R1_w=map_ptr(map=G6,ks=4,vs=8) cb
563: (bf) r3 = r6                     ; frame1: R3_w=fp-32 R6=fp-32 cb
564: (b7) r4 = 0                      ; frame1: R4_w=0 cb
565: (85) call bpf_map_update_elem#2          ; frame1: R0=scalar() cb
566: (bf) r8 = r0                     ; frame1: R0=scalar(id=34) R8_w=scalar(id=34) cb
567: (18) r1 = 0xffff0000c5ddf400     ; frame1: R1_w=map_ptr(map=G6,ks=4,vs=8) cb
569: (bf) r2 = r9                     ; frame1: R2_w=fp-20 R9=fp-20 cb
570: (bf) r3 = r6                     ; frame1: R3_w=fp-32 R6=fp-32 cb
571: (b7) r4 = 0                      ; frame1: R4_w=0 cb
572: (85) call bpf_map_update_elem#2          ; frame1: R0_w=scalar() cb
573: (4f) r7 |= r8                    ; frame1: R7_w=scalar() R8_w=scalar(id=34) cb
574: (15) if r7 == 0x0 goto pc+20     ; frame1: R7_w=scalar(umin=1) cb
575: (b7) r1 = 161                    ; frame1: R1_w=161 cb
; __u32 idx = ERR_IDX; @ wm.bpf.c:54
576: (63) *(u32 *)(r10 -4) = r1       ; frame1: R1_w=161 R10=fp0 fp-8=mmmm???? cb
577: (bf) r2 = r10                    ; frame1: R2_w=fp0 R10=fp0 cb
;  @ wm.bpf.c:0
578: (07) r2 += -4                    ; frame1: R2_w=fp-4 cb
; __u64 *p = bpf_map_lookup_elem(&TAPE, &idx); @ wm.bpf.c:55
579: (18) r1 = 0xffff0000ccc96000     ; frame1: R1_w=map_ptr(map=TAPE,ks=4,vs=8) cb
581: (85) call bpf_map_lookup_elem#1          ; frame1: R0=map_value_or_null(id=35,map=TAPE,ks=4,vs=8) cb
582: (b7) r1 = 1                      ; frame1: R1_w=1 cb
; __u64 v = (p ? *p : 0) + 1; @ wm.bpf.c:56
583: (15) if r0 == 0x0 goto pc+2      ; frame1: R0=map_value(map=TAPE,ks=4,vs=8) cb
584: (79) r1 = *(u64 *)(r0 +0)        ; frame1: R0=map_value(map=TAPE,ks=4,vs=8) R1_w=scalar() cb
585: (07) r1 += 1                     ; frame1: R1_w=scalar() cb
586: (7b) *(u64 *)(r10 -16) = r1      ; frame1: R1_w=scalar(id=36) R10=fp0 fp-16_w=scalar(id=36) cb
587: (bf) r2 = r10                    ; frame1: R2_w=fp0 R10=fp0 cb
588: (07) r2 += -4                    ; frame1: R2_w=fp-4 cb
589: (bf) r3 = r10                    ; frame1: R3_w=fp0 R10=fp0 cb
590: (07) r3 += -16                   ; frame1: R3_w=fp-16 cb
; bpf_map_update_elem(&TAPE, &idx, &v, BPF_ANY); @ wm.bpf.c:57
591: (18) r1 = 0xffff0000ccc96000     ; frame1: R1_w=map_ptr(map=TAPE,ks=4,vs=8) cb
593: (b7) r4 = 0                      ; frame1: R4_w=0 cb
594: (85) call bpf_map_update_elem#2          ; frame1: R0=scalar() cb
595: (b7) r1 = 0                      ; frame1: R1_w=0 cb
; *sum  = NAND_GATE(G7, h, i); @ wm.bpf.c:137
596: (63) *(u32 *)(r10 -20) = r1
mark_precise: frame1: last_idx 596 first_idx 595 subseq_idx -1 
mark_precise: frame1: regs=r1 stack= before 595: (b7) r1 = 0
597: frame1: R1_w=0 R10=fp0 fp-24=0000mmmm cb
597: (b7) r1 = 1                      ; frame1: R1_w=1 cb
598: (63) *(u32 *)(r10 -24) = r1      ; frame1: R1_w=1 R10=fp0 fp-24=00001 cb
599: (7b) *(u64 *)(r10 -32) = r1      ; frame1: R1_w=1 R10=fp0 fp-32_w=1 cb
600: (bf) r8 = r10                    ; frame1: R8_w=fp0 R10=fp0 cb
601: (07) r8 += -20                   ; frame1: R8_w=fp-20 cb
602: (18) r1 = 0xffff0000c40e1000     ; frame1: R1_w=map_ptr(map=G7,ks=4,vs=8) cb
604: (bf) r2 = r8                     ; frame1: R2_w=fp-20 R8_w=fp-20 cb
605: (85) call bpf_map_delete_elem#3          ; frame1: R0_w=scalar() cb
606: (bf) r9 = r10                    ; frame1: R9_w=fp0 R10=fp0 cb
607: (07) r9 += -24                   ; frame1: R9_w=fp-24 cb
608: (18) r1 = 0xffff0000c40e1000     ; frame1: R1_w=map_ptr(map=G7,ks=4,vs=8) cb
610: (bf) r2 = r9                     ; frame1: R2_w=fp-24 R9_w=fp-24 cb
611: (85) call bpf_map_delete_elem#3          ; frame1: R0=scalar() cb
612: (b7) r1 = 2                      ; frame1: R1_w=2 cb
613: (63) *(u32 *)(r10 -36) = r1      ; frame1: R1_w=2 R10=fp0 fp-40=mmmmmmmm cb
614: (bf) r2 = r10                    ; frame1: R2_w=fp0 R10=fp0 cb
615: (07) r2 += -36                   ; frame1: R2_w=fp-36 cb
616: (18) r1 = 0xffff0000c40e1000     ; frame1: R1_w=map_ptr(map=G7,ks=4,vs=8) cb
618: (85) call bpf_map_delete_elem#3          ; frame1: R0_w=scalar() cb
619: (bf) r6 = r10                    ; frame1: R6_w=fp0 R10=fp0 cb
620: (07) r6 += -32                   ; frame1: R6_w=fp-32 cb
621: (18) r1 = 0xffff0000c40e1000     ; frame1: R1_w=map_ptr(map=G7,ks=4,vs=8) cb
623: (bf) r2 = r8                     ; frame1: R2_w=fp-20 R8=fp-20 cb
624: (bf) r3 = r6                     ; frame1: R3_w=fp-32 R6_w=fp-32 cb
625: (b7) r4 = 1                      ; frame1: R4_w=1 cb
626: (85) call bpf_map_update_elem#2          ; frame1: R0=scalar() cb
627: (bf) r7 = r0                     ; frame1: R0=scalar(id=37) R7_w=scalar(id=37) cb
628: (79) r1 = *(u64 *)(r10 -48)      ; frame1: R1_w=scalar(id=30) R10=fp0 fp-48=scalar(id=30) cb
629: (15) if r1 == 0x0 goto pc+1      ; frame1: R1_w=scalar(id=30,umin=1) cb
630: (bf) r9 = r8                     ; frame1: R8=fp-20 R9_w=fp-20 cb
631: (61) r1 = *(u32 *)(r9 +0)        ; frame1: R1_w=0 R9_w=fp-20 fp-24=00001 cb
632: (63) *(u32 *)(r10 -40) = r1      ; frame1: R1_w=0 R10=fp0 fp-40=mmmm0 cb
633: (bf) r2 = r10                    ; frame1: R2_w=fp0 R10=fp0 cb
634: (07) r2 += -40                   ; frame1: R2_w=fp-40 cb
635: (18) r1 = 0xffff0000c40e1000     ; frame1: R1_w=map_ptr(map=G7,ks=4,vs=8) cb
637: (bf) r3 = r6                     ; frame1: R3_w=fp-32 R6=fp-32 cb
638: (b7) r4 = 0                      ; frame1: R4_w=0 cb
639: (85) call bpf_map_update_elem#2          ; frame1: R0=scalar() cb
640: (4f) r7 |= r0                    ; frame1: R0=scalar() R7_w=scalar() cb
641: (18) r1 = 0xffff0000c40e1000     ; frame1: R1_w=map_ptr(map=G7,ks=4,vs=8) cb
643: (bf) r2 = r8                     ; frame1: R2_w=fp-20 R8=fp-20 cb
644: (bf) r3 = r6                     ; frame1: R3_w=fp-32 R6=fp-32 cb
645: (b7) r4 = 0                      ; frame1: R4_w=0 cb
646: (85) call bpf_map_update_elem#2          ; frame1: R0_w=scalar() cb
647: (7b) *(u64 *)(r10 -48) = r0      ; frame1: R0_w=scalar(id=38) R10=fp0 fp-48_w=scalar(id=38) cb
648: (15) if r7 == 0x0 goto pc+20     ; frame1: R7_w=scalar(umin=1) cb
649: (b7) r1 = 161                    ; frame1: R1_w=161 cb
; __u32 idx = ERR_IDX; @ wm.bpf.c:54
650: (63) *(u32 *)(r10 -4) = r1       ; frame1: R1_w=161 R10=fp0 fp-8=mmmm???? cb
651: (bf) r2 = r10                    ; frame1: R2_w=fp0 R10=fp0 cb
;  @ wm.bpf.c:0
652: (07) r2 += -4                    ; frame1: R2_w=fp-4 cb
; __u64 *p = bpf_map_lookup_elem(&TAPE, &idx); @ wm.bpf.c:55
653: (18) r1 = 0xffff0000ccc96000     ; frame1: R1_w=map_ptr(map=TAPE,ks=4,vs=8) cb
655: (85) call bpf_map_lookup_elem#1          ; frame1: R0=map_value_or_null(id=39,map=TAPE,ks=4,vs=8) cb
656: (b7) r1 = 1                      ; frame1: R1_w=1 cb
; __u64 v = (p ? *p : 0) + 1; @ wm.bpf.c:56
657: (15) if r0 == 0x0 goto pc+2      ; frame1: R0=map_value(map=TAPE,ks=4,vs=8) cb
658: (79) r1 = *(u64 *)(r0 +0)        ; frame1: R0=map_value(map=TAPE,ks=4,vs=8) R1_w=scalar() cb
659: (07) r1 += 1                     ; frame1: R1_w=scalar() cb
660: (7b) *(u64 *)(r10 -16) = r1      ; frame1: R1_w=scalar(id=40) R10=fp0 fp-16_w=scalar(id=40) cb
661: (bf) r2 = r10                    ; frame1: R2_w=fp0 R10=fp0 cb
662: (07) r2 += -4                    ; frame1: R2_w=fp-4 cb
663: (bf) r3 = r10                    ; frame1: R3_w=fp0 R10=fp0 cb
664: (07) r3 += -16                   ; frame1: R3_w=fp-16 cb
; bpf_map_update_elem(&TAPE, &idx, &v, BPF_ANY); @ wm.bpf.c:57
665: (18) r1 = 0xffff0000ccc96000     ; frame1: R1_w=map_ptr(map=TAPE,ks=4,vs=8) cb
667: (b7) r4 = 0                      ; frame1: R4_w=0 cb
668: (85) call bpf_map_update_elem#2          ; frame1: R0=scalar() cb
669: (b7) r1 = 0                      ; frame1: R1_w=0 cb
; *cout = NAND_GATE(G8, d, g); @ wm.bpf.c:138
670: (63) *(u32 *)(r10 -20) = r1
mark_precise: frame1: last_idx 670 first_idx 669 subseq_idx -1 
mark_precise: frame1: regs=r1 stack= before 669: (b7) r1 = 0
671: frame1: R1_w=0 R10=fp0 fp-24=0000mmmm cb
671: (b7) r1 = 1                      ; frame1: R1_w=1 cb
672: (63) *(u32 *)(r10 -24) = r1      ; frame1: R1_w=1 R10=fp0 fp-24=00001 cb
673: (7b) *(u64 *)(r10 -32) = r1      ; frame1: R1_w=1 R10=fp0 fp-32_w=1 cb
674: (bf) r8 = r10                    ; frame1: R8_w=fp0 R10=fp0 cb
;  @ wm.bpf.c:0
675: (07) r8 += -20                   ; frame1: R8_w=fp-20 cb
; *cout = NAND_GATE(G8, d, g); @ wm.bpf.c:138
676: (18) r1 = 0xffff0000c40e0000     ; frame1: R1_w=map_ptr(map=G8,ks=4,vs=8) cb
678: (bf) r2 = r8                     ; frame1: R2_w=fp-20 R8_w=fp-20 cb
679: (85) call bpf_map_delete_elem#3          ; frame1: R0_w=scalar() cb
680: (bf) r9 = r10                    ; frame1: R9_w=fp0 R10=fp0 cb
;  @ wm.bpf.c:0
681: (07) r9 += -24                   ; frame1: R9_w=fp-24 cb
; *cout = NAND_GATE(G8, d, g); @ wm.bpf.c:138
682: (18) r1 = 0xffff0000c40e0000     ; frame1: R1_w=map_ptr(map=G8,ks=4,vs=8) cb
684: (bf) r2 = r9                     ; frame1: R2_w=fp-24 R9_w=fp-24 cb
685: (85) call bpf_map_delete_elem#3          ; frame1: R0=scalar() cb
686: (b7) r1 = 2                      ; frame1: R1_w=2 cb
687: (63) *(u32 *)(r10 -36) = r1      ; frame1: R1_w=2 R10=fp0 fp-40=mmmmmmmm cb
688: (bf) r2 = r10                    ; frame1: R2_w=fp0 R10=fp0 cb
;  @ wm.bpf.c:0
689: (07) r2 += -36                   ; frame1: R2_w=fp-36 cb
; *cout = NAND_GATE(G8, d, g); @ wm.bpf.c:138
690: (18) r1 = 0xffff0000c40e0000     ; frame1: R1_w=map_ptr(map=G8,ks=4,vs=8) cb
692: (85) call bpf_map_delete_elem#3          ; frame1: R0_w=scalar() cb
693: (bf) r7 = r10                    ; frame1: R7_w=fp0 R10=fp0 cb
;  @ wm.bpf.c:0
694: (07) r7 += -32                   ; frame1: R7_w=fp-32 cb
; *cout = NAND_GATE(G8, d, g); @ wm.bpf.c:138
695: (18) r1 = 0xffff0000c40e0000     ; frame1: R1_w=map_ptr(map=G8,ks=4,vs=8) cb
697: (bf) r2 = r8                     ; frame1: R2_w=fp-20 R8=fp-20 cb
698: (bf) r3 = r7                     ; frame1: R3_w=fp-32 R7_w=fp-32 cb
699: (b7) r4 = 1                      ; frame1: R4_w=1 cb
700: (85) call bpf_map_update_elem#2          ; frame1: R0=scalar() cb
701: (bf) r6 = r0                     ; frame1: R0=scalar(id=41) R6_w=scalar(id=41) cb
702: (79) r1 = *(u64 *)(r10 -64)      ; frame1: R1_w=scalar(id=9) R10=fp0 fp-64=scalar(id=9) cb
703: (15) if r1 == 0x0 goto pc+1      ; frame1: R1_w=scalar(id=9,umin=1) cb
704: (bf) r9 = r8                     ; frame1: R8=fp-20 R9_w=fp-20 cb
705: (61) r1 = *(u32 *)(r9 +0)        ; frame1: R1_w=0 R9_w=fp-20 fp-24=00001 cb
706: (63) *(u32 *)(r10 -40) = r1      ; frame1: R1_w=0 R10=fp0 fp-40=mmmm0 cb
707: (bf) r2 = r10                    ; frame1: R2_w=fp0 R10=fp0 cb
708: (07) r2 += -40                   ; frame1: R2_w=fp-40 cb
709: (18) r1 = 0xffff0000c40e0000     ; frame1: R1_w=map_ptr(map=G8,ks=4,vs=8) cb
711: (bf) r3 = r7                     ; frame1: R3_w=fp-32 R7=fp-32 cb
712: (b7) r4 = 0                      ; frame1: R4_w=0 cb
713: (85) call bpf_map_update_elem#2          ; frame1: R0=scalar() cb
714: (4f) r6 |= r0                    ; frame1: R0=scalar() R6_w=scalar() cb
715: (18) r1 = 0xffff0000c40e0000     ; frame1: R1_w=map_ptr(map=G8,ks=4,vs=8) cb
717: (bf) r2 = r8                     ; frame1: R2_w=fp-20 R8=fp-20 cb
718: (bf) r3 = r7                     ; frame1: R3_w=fp-32 R7=fp-32 cb
719: (b7) r4 = 0                      ; frame1: R4_w=0 cb
720: (85) call bpf_map_update_elem#2          ; frame1: R0_w=scalar() cb
721: (bf) r7 = r0                     ; frame1: R0_w=scalar(id=42) R7_w=scalar(id=42) cb
722: (b7) r8 = 1                      ; frame1: R8_w=1 cb
; *sum  = NAND_GATE(G7, h, i); @ wm.bpf.c:137
723: (79) r1 = *(u64 *)(r10 -48)      ; frame1: R1_w=scalar(id=38) R10=fp0 fp-48=scalar(id=38) cb
724: (15) if r1 == 0x0 goto pc+1      ; frame1: R1_w=scalar(id=38,umin=1) cb
725: (b7) r8 = 0                      ; frame1: R8=0 cb
; *cout = NAND_GATE(G8, d, g); @ wm.bpf.c:138
726: (15) if r6 == 0x0 goto pc+20     ; frame1: R6=scalar(umin=1) cb
727: (b7) r1 = 161                    ; frame1: R1_w=161 cb
; __u32 idx = ERR_IDX; @ wm.bpf.c:54
728: (63) *(u32 *)(r10 -4) = r1       ; frame1: R1_w=161 R10=fp0 fp-8=mmmm???? cb
729: (bf) r2 = r10                    ; frame1: R2_w=fp0 R10=fp0 cb
;  @ wm.bpf.c:0
730: (07) r2 += -4                    ; frame1: R2_w=fp-4 cb
; __u64 *p = bpf_map_lookup_elem(&TAPE, &idx); @ wm.bpf.c:55
731: (18) r1 = 0xffff0000ccc96000     ; frame1: R1_w=map_ptr(map=TAPE,ks=4,vs=8) cb
733: (85) call bpf_map_lookup_elem#1          ; frame1: R0_w=map_value_or_null(id=43,map=TAPE,ks=4,vs=8) cb
734: (b7) r1 = 1                      ; frame1: R1=1 cb
; __u64 v = (p ? *p : 0) + 1; @ wm.bpf.c:56
735: (15) if r0 == 0x0 goto pc+2      ; frame1: R0=map_value(map=TAPE,ks=4,vs=8) cb
736: (79) r1 = *(u64 *)(r0 +0)        ; frame1: R0=map_value(map=TAPE,ks=4,vs=8) R1_w=scalar() cb
737: (07) r1 += 1                     ; frame1: R1_w=scalar() cb
738: (7b) *(u64 *)(r10 -16) = r1      ; frame1: R1_w=scalar(id=44) R10=fp0 fp-16_w=scalar(id=44) cb
739: (bf) r2 = r10                    ; frame1: R2_w=fp0 R10=fp0 cb
740: (07) r2 += -4                    ; frame1: R2_w=fp-4 cb
741: (bf) r3 = r10                    ; frame1: R3_w=fp0 R10=fp0 cb
742: (07) r3 += -16                   ; frame1: R3_w=fp-16 cb
; bpf_map_update_elem(&TAPE, &idx, &v, BPF_ANY); @ wm.bpf.c:57
743: (18) r1 = 0xffff0000ccc96000     ; frame1: R1_w=map_ptr(map=TAPE,ks=4,vs=8) cb
745: (b7) r4 = 0                      ; frame1: R4_w=0 cb
746: (85) call bpf_map_update_elem#2          ; frame1: R0=scalar() cb
747: (79) r1 = *(u64 *)(r10 -56)      ; frame1: R1_w=scalar(id=1) R10=fp0 fp-56=scalar(id=1) cb
; tape_write(S_BASE + i, sum); @ wm.bpf.c:170
748: (07) r1 += 112                   ; frame1: R1_w=scalar(id=1+112) cb
749: (63) *(u32 *)(r10 -32) = r1      ; frame1: R1_w=scalar(id=1+112) R10=fp0 fp-32=mmmmscalar() cb
; v &= 1ull; @ wm.bpf.c:48
750: (7b) *(u64 *)(r10 -16) = r8      ; frame1: R8=0 R10=fp0 fp-16_w=0 cb
751: (bf) r2 = r10                    ; frame1: R2_w=fp0 R10=fp0 cb
;  @ wm.bpf.c:0
752: (07) r2 += -32                   ; frame1: R2_w=fp-32 cb
753: (bf) r3 = r10                    ; frame1: R3_w=fp0 R10=fp0 cb
754: (07) r3 += -16                   ; frame1: R3_w=fp-16 cb
755: (b7) r6 = 0                      ; frame1: R6_w=0 cb
; bpf_map_update_elem(&TAPE, &idx, &v, BPF_ANY); @ wm.bpf.c:49
756: (18) r1 = 0xffff0000ccc96000     ; frame1: R1_w=map_ptr(map=TAPE,ks=4,vs=8) cb
758: (b7) r4 = 0                      ; frame1: R4_w=0 cb
759: (85) call bpf_map_update_elem#2          ; frame1: R0_w=scalar() cb
760: (b7) r1 = 1                      ; frame1: R1_w=1 cb
; *cout = NAND_GATE(G8, d, g); @ wm.bpf.c:138
761: (15) if r7 == 0x0 goto pc+1      ; frame1: R7=scalar(id=42,umin=1) cb
762: (b7) r1 = 0                      ; frame1: R1=0 cb
763: (b7) r2 = 160                    ; frame1: R2_w=160 cb
764: (63) *(u32 *)(r10 -32) = r2      ; frame1: R2_w=160 R10=fp0 fp-32=mmmm160 cb
; v &= 1ull; @ wm.bpf.c:48
765: (7b) *(u64 *)(r10 -16) = r1      ; frame1: R1=0 R10=fp0 fp-16_w=0 cb
766: (bf) r2 = r10                    ; frame1: R2_w=fp0 R10=fp0 cb
;  @ wm.bpf.c:0
767: (07) r2 += -32                   ; frame1: R2_w=fp-32 cb
768: (bf) r3 = r10                    ; frame1: R3_w=fp0 R10=fp0 cb
769: (07) r3 += -16                   ; frame1: R3_w=fp-16 cb
; bpf_map_update_elem(&TAPE, &idx, &v, BPF_ANY); @ wm.bpf.c:49
770: (18) r1 = 0xffff0000ccc96000     ; frame1: R1_w=map_ptr(map=TAPE,ks=4,vs=8) cb
772: (b7) r4 = 0                      ; frame1: R4_w=0 cb
773: (85) call bpf_map_update_elem#2
mark_precise: frame1: last_idx 773 first_idx 763 subseq_idx -1 
mark_precise: frame1: regs= stack=-32 before 772: (b7) r4 = 0
mark_precise: frame1: regs= stack=-32 before 770: (18) r1 = 0xffff0000ccc96000
mark_precise: frame1: regs= stack=-32 before 769: (07) r3 += -16
mark_precise: frame1: regs= stack=-32 before 768: (bf) r3 = r10
mark_precise: frame1: regs= stack=-32 before 767: (07) r2 += -32
mark_precise: frame1: regs= stack=-32 before 766: (bf) r2 = r10
mark_precise: frame1: regs= stack=-32 before 765: (7b) *(u64 *)(r10 -16) = r1
mark_precise: frame1: regs= stack=-32 before 764: (63) *(u32 *)(r10 -32) = r2
mark_precise: frame1: regs=r2 stack= before 763: (b7) r2 = 160
774: frame1: R0_w=scalar() cb
; } @ wm.bpf.c:173
774: (bf) r0 = r6                     ; frame1: R0_w=0 R6=0 cb
775: (95) exit
mark_precise: frame1: last_idx 775 first_idx 763 subseq_idx -1 
mark_precise: frame1: regs=r0 stack= before 774: (bf) r0 = r6
mark_precise: frame1: regs=r6 stack= before 773: (85) call bpf_map_update_elem#2
mark_precise: frame1: regs=r6 stack= before 772: (b7) r4 = 0
mark_precise: frame1: regs=r6 stack= before 770: (18) r1 = 0xffff0000ccc96000
mark_precise: frame1: regs=r6 stack= before 769: (07) r3 += -16
mark_precise: frame1: regs=r6 stack= before 768: (bf) r3 = r10
mark_precise: frame1: regs=r6 stack= before 767: (07) r2 += -32
mark_precise: frame1: regs=r6 stack= before 766: (bf) r2 = r10
mark_precise: frame1: regs=r6 stack= before 765: (7b) *(u64 *)(r10 -16) = r1
mark_precise: frame1: regs=r6 stack= before 764: (63) *(u32 *)(r10 -32) = r2
mark_precise: frame1: regs=r6 stack= before 763: (b7) r2 = 160
mark_precise: frame1: parent state regs=r6 stack=:  frame1: R0_w=scalar() R1_rw=0 R6_rw=P0 R7=scalar(id=42,umin=1) R8=0 R9=fp-20 R10=fp0 fp-8=mmmm???? fp-16_w=0 fp-24=00001 fp-32_r=mmmmscalar() fp-40=mmmm0 fp-48=scalar(id=38,umin=1) fp-56=scalar(id=1) fp-64=scalar(id=9,umin=1) fp-72=1 fp-80=1 cb
mark_precise: frame0: parent state regs= stack=:  R0=scalar() R1=32 R2=func() R3=0 R4=0 R6=fp-8 R10=fp0 fp-8=0 fp-16=mmmm161
mark_precise: frame1: last_idx 762 first_idx 747 subseq_idx 763 
mark_precise: frame1: regs=r6 stack= before 762: (b7) r1 = 0
mark_precise: frame1: regs=r6 stack= before 761: (15) if r7 == 0x0 goto pc+1
mark_precise: frame1: regs=r6 stack= before 760: (b7) r1 = 1
mark_precise: frame1: regs=r6 stack= before 759: (85) call bpf_map_update_elem#2
mark_precise: frame1: regs=r6 stack= before 758: (b7) r4 = 0
mark_precise: frame1: regs=r6 stack= before 756: (18) r1 = 0xffff0000ccc96000
mark_precise: frame1: regs=r6 stack= before 755: (b7) r6 = 0
returning from callee:
 frame1: R0_w=0 R6=0 R7=scalar(id=42,umin=1) R8=0 R9=fp-20 R10=fp0 fp-8=mmmm???? fp-16_w=0 fp-24=00001 fp-32=mmmm160 fp-40=mmmm0 fp-48=scalar(id=38,umin=1) fp-56=scalar(id=1) fp-64=scalar(id=9,umin=1) fp-72=1 fp-80=1 cb
to caller at 27:
 R0=scalar() R1=32 R2=func() R3=0 R4=0 R6=fp-8 R10=fp0 fp-8=0 fp-16=mmmm161
frame 0: propagating r1,r4
mark_precise: frame0: last_idx 27 first_idx 763 subseq_idx -1 
mark_precise: frame0: regs=r1,r4 stack= before 775: (95) exit

from 775 to 27: safe
frame 1: propagating r6
mark_precise: frame1: last_idx 763 first_idx 747 subseq_idx -1 
mark_precise: frame1: regs=r6 stack= before 761: (15) if r7 == 0x0 goto pc+1
mark_precise: frame1: regs=r6 stack= before 760: (b7) r1 = 1
mark_precise: frame1: regs=r6 stack= before 759: (85) call bpf_map_update_elem#2
mark_precise: frame1: regs=r6 stack= before 758: (b7) r4 = 0
mark_precise: frame1: regs=r6 stack= before 756: (18) r1 = 0xffff0000ccc96000
mark_precise: frame1: regs=r6 stack= before 755: (b7) r6 = 0

from 761 to 763: safe

from 735 to 738: frame1: R0=0 R1=1 R6=scalar(umin=1) R7=scalar(id=42) R8=0 R9=fp-20 R10=fp0 fp-8=mmmm???? fp-16=scalar(id=40) fp-24=00001 fp-32=1 fp-40=mmmm0 fp-48=scalar(id=38,umin=1) fp-56=scalar(id=1) fp-64=scalar(id=9,umin=1) fp-72=1 fp-80=1 cb
738: frame1: R0=0 R1=1 R6=scalar(umin=1) R7=scalar(id=42) R8=0 R9=fp-20 R10=fp0 fp-8=mmmm???? fp-16=scalar(id=40) fp-24=00001 fp-32=1 fp-40=mmmm0 fp-48=scalar(id=38,umin=1) fp-56=scalar(id=1) fp-64=scalar(id=9,umin=1) fp-72=1 fp-80=1 cb
; __u64 v = (p ? *p : 0) + 1; @ wm.bpf.c:56
738: (7b) *(u64 *)(r10 -16) = r1      ; frame1: R1=1 R10=fp0 fp-16_w=1 cb
739: (bf) r2 = r10                    ; frame1: R2_w=fp0 R10=fp0 cb
740: (07) r2 += -4                    ; frame1: R2_w=fp-4 cb
741: (bf) r3 = r10                    ; frame1: R3_w=fp0 R10=fp0 cb
742: (07) r3 += -16                   ; frame1: R3_w=fp-16 cb
; bpf_map_update_elem(&TAPE, &idx, &v, BPF_ANY); @ wm.bpf.c:57
743: (18) r1 = 0xffff0000ccc96000     ; frame1: R1_w=map_ptr(map=TAPE,ks=4,vs=8) cb
745: (b7) r4 = 0                      ; frame1: R4_w=0 cb
746: (85) call bpf_map_update_elem#2
747: safe

from 726 to 747: safe

from 724 to 726: safe

from 703 to 705: frame1: R0=scalar(id=41) R1_w=0 R6_w=scalar(id=41) R7=fp-32 R8=fp-20 R9=fp-24 R10=fp0 fp-8=mmmm???? fp-16=scalar(id=40) fp-24=00001 fp-32=1 fp-40=mmmmmmmm fp-48=scalar(id=38) fp-56=scalar(id=1) fp-64=0 fp-72=1 fp-80=1 cb
705: frame1: R0=scalar(id=41) R1_w=0 R6_w=scalar(id=41) R7=fp-32 R8=fp-20 R9=fp-24 R10=fp0 fp-8=mmmm???? fp-16=scalar(id=40) fp-24=00001 fp-32=1 fp-40=mmmmmmmm fp-48=scalar(id=38) fp-56=scalar(id=1) fp-64=0 fp-72=1 fp-80=1 cb
; *cout = NAND_GATE(G8, d, g); @ wm.bpf.c:138
705: (61) r1 = *(u32 *)(r9 +0)        ; frame1: R1_w=1 R9=fp-24 fp-24=00001 cb
706: (63) *(u32 *)(r10 -40) = r1      ; frame1: R1_w=1 R10=fp0 fp-40=mmmm1 cb
707: (bf) r2 = r10                    ; frame1: R2_w=fp0 R10=fp0 cb
708: (07) r2 += -40                   ; frame1: R2_w=fp-40 cb
709: (18) r1 = 0xffff0000c40e0000     ; frame1: R1_w=map_ptr(map=G8,ks=4,vs=8) cb
711: (bf) r3 = r7                     ; frame1: R3_w=fp-32 R7=fp-32 cb
712: (b7) r4 = 0                      ; frame1: R4_w=0 cb
713: (85) call bpf_map_update_elem#2
714: safe

from 657 to 660: frame1: R0=0 R1=1 R6=fp-32 R7=scalar(umin=1) R8=fp-20 R9=fp-20 R10=fp0 fp-8=mmmm???? fp-16=scalar(id=36) fp-24=00001 fp-32=1 fp-40=mmmm0 fp-48=scalar(id=38) fp-56=scalar(id=1) fp-64=scalar(id=9) fp-72=1 fp-80=1 cb
660: frame1: R0=0 R1=1 R6=fp-32 R7=scalar(umin=1) R8=fp-20 R9=fp-20 R10=fp0 fp-8=mmmm???? fp-16=scalar(id=36) fp-24=00001 fp-32=1 fp-40=mmmm0 fp-48=scalar(id=38) fp-56=scalar(id=1) fp-64=scalar(id=9) fp-72=1 fp-80=1 cb
; __u64 v = (p ? *p : 0) + 1; @ wm.bpf.c:56
660: (7b) *(u64 *)(r10 -16) = r1      ; frame1: R1=1 R10=fp0 fp-16_w=1 cb
661: (bf) r2 = r10                    ; frame1: R2_w=fp0 R10=fp0 cb
662: (07) r2 += -4                    ; frame1: R2_w=fp-4 cb
663: (bf) r3 = r10                    ; frame1: R3_w=fp0 R10=fp0 cb
664: (07) r3 += -16                   ; frame1: R3_w=fp-16 cb
; bpf_map_update_elem(&TAPE, &idx, &v, BPF_ANY); @ wm.bpf.c:57
665: (18) r1 = 0xffff0000ccc96000     ; frame1: R1_w=map_ptr(map=TAPE,ks=4,vs=8) cb
667: (b7) r4 = 0                      ; frame1: R4_w=0 cb
668: (85) call bpf_map_update_elem#2
669: safe

from 648 to 669: safe

from 629 to 631: frame1: R0=scalar(id=37) R1_w=0 R6=fp-32 R7_w=scalar(id=37) R8=fp-20 R9=fp-24 R10=fp0 fp-8=mmmm???? fp-16=scalar(id=36) fp-24=00001 fp-32=1 fp-40=mmmmmmmm fp-48=0 fp-56=scalar(id=1) fp-64=scalar(id=9) fp-72=1 fp-80=1 cb
631: frame1: R0=scalar(id=37) R1_w=0 R6=fp-32 R7_w=scalar(id=37) R8=fp-20 R9=fp-24 R10=fp0 fp-8=mmmm???? fp-16=scalar(id=36) fp-24=00001 fp-32=1 fp-40=mmmmmmmm fp-48=0 fp-56=scalar(id=1) fp-64=scalar(id=9) fp-72=1 fp-80=1 cb
; *sum  = NAND_GATE(G7, h, i); @ wm.bpf.c:137
631: (61) r1 = *(u32 *)(r9 +0)        ; frame1: R1_w=1 R9=fp-24 fp-24=00001 cb
632: (63) *(u32 *)(r10 -40) = r1      ; frame1: R1_w=1 R10=fp0 fp-40=mmmm1 cb
633: (bf) r2 = r10                    ; frame1: R2_w=fp0 R10=fp0 cb
634: (07) r2 += -40                   ; frame1: R2_w=fp-40 cb
635: (18) r1 = 0xffff0000c40e1000     ; frame1: R1_w=map_ptr(map=G7,ks=4,vs=8) cb
637: (bf) r3 = r6                     ; frame1: R3_w=fp-32 R6=fp-32 cb
638: (b7) r4 = 0                      ; frame1: R4_w=0 cb
639: (85) call bpf_map_update_elem#2
640: safe

from 583 to 586: frame1: R0=0 R1=1 R6=fp-32 R7=scalar(umin=1) R8=scalar(id=34) R9=fp-20 R10=fp0 fp-8=mmmm???? fp-16=scalar(id=32) fp-24=00001 fp-32=1 fp-40=mmmm1 fp-48=scalar(id=30) fp-56=scalar(id=1) fp-64=scalar(id=9) fp-72=1 fp-80=1 cb
586: frame1: R0=0 R1=1 R6=fp-32 R7=scalar(umin=1) R8=scalar(id=34) R9=fp-20 R10=fp0 fp-8=mmmm???? fp-16=scalar(id=32) fp-24=00001 fp-32=1 fp-40=mmmm1 fp-48=scalar(id=30) fp-56=scalar(id=1) fp-64=scalar(id=9) fp-72=1 fp-80=1 cb
; __u64 v = (p ? *p : 0) + 1; @ wm.bpf.c:56
586: (7b) *(u64 *)(r10 -16) = r1      ; frame1: R1=1 R10=fp0 fp-16_w=1 cb
587: (bf) r2 = r10                    ; frame1: R2_w=fp0 R10=fp0 cb
588: (07) r2 += -4                    ; frame1: R2_w=fp-4 cb
589: (bf) r3 = r10                    ; frame1: R3_w=fp0 R10=fp0 cb
590: (07) r3 += -16                   ; frame1: R3_w=fp-16 cb
; bpf_map_update_elem(&TAPE, &idx, &v, BPF_ANY); @ wm.bpf.c:57
591: (18) r1 = 0xffff0000ccc96000     ; frame1: R1_w=map_ptr(map=TAPE,ks=4,vs=8) cb
593: (b7) r4 = 0                      ; frame1: R4_w=0 cb
594: (85) call bpf_map_update_elem#2
595: safe

from 574 to 595: safe

from 555 to 557: frame1: R0=scalar(id=33) R1_w=fp-20 R2_w=0 R6=fp-32 R7_w=scalar(id=33) R8=fp-24 R9=fp-20 R10=fp0 fp-8=mmmm???? fp-16=scalar(id=32) fp-24=00001 fp-32=1 fp-40=mmmmmmmm fp-48=scalar(id=30) fp-56=scalar(id=1) fp-64=scalar(id=9) fp-72=0 fp-80=1 cb
557: frame1: R0=scalar(id=33) R1_w=fp-20 R2_w=0 R6=fp-32 R7_w=scalar(id=33) R8=fp-24 R9=fp-20 R10=fp0 fp-8=mmmm???? fp-16=scalar(id=32) fp-24=00001 fp-32=1 fp-40=mmmmmmmm fp-48=scalar(id=30) fp-56=scalar(id=1) fp-64=scalar(id=9) fp-72=0 fp-80=1 cb
; __u64 i   = NAND_GATE(G6, cin, g); @ wm.bpf.c:136
557: (61) r1 = *(u32 *)(r1 +0)        ; frame1: R1_w=0 fp-24=00001 cb
558: (63) *(u32 *)(r10 -40) = r1      ; frame1: R1_w=0 R10=fp0 fp-40=mmmm0 cb
559: (bf) r2 = r10                    ; frame1: R2_w=fp0 R10=fp0 cb
560: (07) r2 += -40                   ; frame1: R2_w=fp-40 cb
561: (18) r1 = 0xffff0000c5ddf400     ; frame1: R1_w=map_ptr(map=G6,ks=4,vs=8) cb
563: (bf) r3 = r6                     ; frame1: R3_w=fp-32 R6=fp-32 cb
564: (b7) r4 = 0                      ; frame1: R4_w=0 cb
565: (85) call bpf_map_update_elem#2
566: safe

from 508 to 511: frame1: R0=0 R1=1 R6=fp-32 R7=scalar(umin=1) R8=fp-20 R9=fp-20 R10=fp0 fp-8=mmmm???? fp-16=scalar(id=28) fp-24=00001 fp-32=1 fp-40=mmmm0 fp-48=scalar(id=30) fp-56=scalar(id=1) fp-64=scalar(id=9) fp-72=scalar(id=6,smin=smin32=0,smax=umax=smax32=umax32=1,var_off=(0x0; 0x1)) fp-80=1 cb
511: frame1: R0=0 R1=1 R6=fp-32 R7=scalar(umin=1) R8=fp-20 R9=fp-20 R10=fp0 fp-8=mmmm???? fp-16=scalar(id=28) fp-24=00001 fp-32=1 fp-40=mmmm0 fp-48=scalar(id=30) fp-56=scalar(id=1) fp-64=scalar(id=9) fp-72=scalar(id=6,smin=smin32=0,smax=umax=smax32=umax32=1,var_off=(0x0; 0x1)) fp-80=1 cb
; __u64 v = (p ? *p : 0) + 1; @ wm.bpf.c:56
511: (7b) *(u64 *)(r10 -16) = r1      ; frame1: R1=1 R10=fp0 fp-16_w=1 cb
512: (bf) r2 = r10                    ; frame1: R2_w=fp0 R10=fp0 cb
513: (07) r2 += -4                    ; frame1: R2_w=fp-4 cb
514: (bf) r3 = r10                    ; frame1: R3_w=fp0 R10=fp0 cb
515: (07) r3 += -16                   ; frame1: R3_w=fp-16 cb
; bpf_map_update_elem(&TAPE, &idx, &v, BPF_ANY); @ wm.bpf.c:57
516: (18) r1 = 0xffff0000ccc96000     ; frame1: R1_w=map_ptr(map=TAPE,ks=4,vs=8) cb
518: (b7) r4 = 0                      ; frame1: R4_w=0 cb
519: (85) call bpf_map_update_elem#2
520: safe

from 499 to 520: safe

from 434 to 437: frame1: R0=0 R1_w=1 R6=fp-32 R7=scalar(umin=1) R8=fp-20 R9=scalar(id=26) R10=fp0 fp-8=mmmm???? fp-16=scalar(id=24) fp-24=00001 fp-32=1 fp-40=mmmm0 fp-48=scalar(id=22,umin=1) fp-56=scalar(id=1) fp-64=scalar(id=9) fp-72=scalar(id=6,smin=smin32=0,smax=umax=smax32=umax32=1,var_off=(0x0; 0x1)) fp-80=1 cb
437: frame1: R0=0 R1_w=1 R6=fp-32 R7=scalar(umin=1) R8=fp-20 R9=scalar(id=26) R10=fp0 fp-8=mmmm???? fp-16=scalar(id=24) fp-24=00001 fp-32=1 fp-40=mmmm0 fp-48=scalar(id=22,umin=1) fp-56=scalar(id=1) fp-64=scalar(id=9) fp-72=scalar(id=6,smin=smin32=0,smax=umax=smax32=umax32=1,var_off=(0x0; 0x1)) fp-80=1 cb
; __u64 v = (p ? *p : 0) + 1; @ wm.bpf.c:56
437: (7b) *(u64 *)(r10 -16) = r1      ; frame1: R1_w=1 R10=fp0 fp-16_w=1 cb
438: (bf) r2 = r10                    ; frame1: R2_w=fp0 R10=fp0 cb
439: (07) r2 += -4                    ; frame1: R2_w=fp-4 cb
440: (bf) r3 = r10                    ; frame1: R3_w=fp0 R10=fp0 cb
441: (07) r3 += -16                   ; frame1: R3_w=fp-16 cb
; bpf_map_update_elem(&TAPE, &idx, &v, BPF_ANY); @ wm.bpf.c:57
442: (18) r1 = 0xffff0000ccc96000     ; frame1: R1_w=map_ptr(map=TAPE,ks=4,vs=8) cb
444: (b7) r4 = 0                      ; frame1: R4_w=0 cb
445: (85) call bpf_map_update_elem#2
frame 1: propagating fp-48
mark_precise: frame1: last_idx 446 first_idx 433 subseq_idx -1 
mark_precise: frame1: regs= stack=-48 before 445: (85) call bpf_map_update_elem#2
mark_precise: frame1: regs= stack=-48 before 444: (b7) r4 = 0
mark_precise: frame1: regs= stack=-48 before 442: (18) r1 = 0xffff0000ccc96000
mark_precise: frame1: regs= stack=-48 before 441: (07) r3 += -16
mark_precise: frame1: regs= stack=-48 before 440: (bf) r3 = r10
mark_precise: frame1: regs= stack=-48 before 439: (07) r2 += -4
mark_precise: frame1: regs= stack=-48 before 438: (bf) r2 = r10
mark_precise: frame1: regs= stack=-48 before 437: (7b) *(u64 *)(r10 -16) = r1
mark_precise: frame1: regs= stack=-48 before 434: (15) if r0 == 0x0 goto pc+2
mark_precise: frame1: regs= stack=-48 before 433: (b7) r1 = 1
mark_precise: frame1: parent state regs= stack=:  frame1: R0_rw=map_value_or_null(id=27,map=TAPE,ks=4,vs=8) R6=fp-32 R7_w=scalar(umin=1) R8=fp-20 R9_w=scalar(id=26) R10=fp0 fp-8_r=mmmm???? fp-16=scalar(id=24) fp-24_r=00001 fp-32=1 fp-40_r=mmmm0 fp-48_r=Pscalar(id=22,umin=1) fp-56_r=scalar(id=1) fp-64_r=scalar(id=9) fp-72_r=scalar(id=6,smin=smin32=0,smax=umax=smax32=umax32=1,var_off=(0x0; 0x1)) fp-80=1 cb
mark_precise: frame0: parent state regs= stack=:  R0=scalar() R1=32 R2=func() R3=0 R4=0 R6=fp-8 R10=fp0 fp-8=0 fp-16=mmmm161
446: safe
frame 1: propagating fp-48
mark_precise: frame1: last_idx 446 first_idx 417 subseq_idx -1 
mark_precise: frame1: regs= stack=-48 before 425: (15) if r7 == 0x0 goto pc+20
mark_precise: frame1: regs= stack=-48 before 424: (4f) r7 |= r9
mark_precise: frame1: regs= stack=-48 before 423: (85) call bpf_map_update_elem#2
mark_precise: frame1: regs= stack=-48 before 422: (b7) r4 = 0
mark_precise: frame1: regs= stack=-48 before 421: (bf) r3 = r6
mark_precise: frame1: regs= stack=-48 before 420: (bf) r2 = r8
mark_precise: frame1: regs= stack=-48 before 418: (18) r1 = 0xffff0000c5ddd800
mark_precise: frame1: regs= stack=-48 before 417: (bf) r9 = r0
mark_precise: frame1: parent state regs= stack=:  frame1: R0_rw=scalar() R6_r=fp-32 R7_rw=scalar(id=25) R8_r=fp-20 R9_w=fp-20 R10=fp0 fp-8_r=mmmm???? fp-16=scalar(id=24) fp-24_r=00001 fp-32_r=1 fp-40_r=mmmm0 fp-48_r=Pscalar(id=22,umin=1) fp-56_r=scalar(id=1) fp-64_r=scalar(id=9) fp-72_r=scalar(id=6,smin=smin32=0,smax=umax=smax32=umax32=1,var_off=(0x0; 0x1)) fp-80=1 cb
mark_precise: frame0: parent state regs= stack=:  R0=scalar() R1=32 R2=func() R3=0 R4=0 R6=fp-8 R10=fp0 fp-8=0 fp-16=mmmm161

from 425 to 446: safe

from 406 to 408: frame1: R0=scalar(id=25) R1=0 R6=fp-32 R7=scalar(id=25) R8=fp-20 R9=fp-24 R10=fp0 fp-8=mmmm???? fp-16=scalar(id=24) fp-24=00001 fp-32=1 fp-40=mmmmmmmm fp-48=0 fp-56=scalar(id=1) fp-64=scalar(id=9) fp-72=scalar(id=6,smin=smin32=0,smax=umax=smax32=umax32=1,var_off=(0x0; 0x1)) fp-80=1 cb
408: frame1: R0=scalar(id=25) R1=0 R6=fp-32 R7=scalar(id=25) R8=fp-20 R9=fp-24 R10=fp0 fp-8=mmmm???? fp-16=scalar(id=24) fp-24=00001 fp-32=1 fp-40=mmmmmmmm fp-48=0 fp-56=scalar(id=1) fp-64=scalar(id=9) fp-72=scalar(id=6,smin=smin32=0,smax=umax=smax32=umax32=1,var_off=(0x0; 0x1)) fp-80=1 cb
; __u64 g   = NAND_GATE(G4, xab, cin); @ wm.bpf.c:134
408: (61) r1 = *(u32 *)(r9 +0)        ; frame1: R1_w=1 R9=fp-24 fp-24=00001 cb
409: (63) *(u32 *)(r10 -40) = r1      ; frame1: R1_w=1 R10=fp0 fp-40=mmmm1 cb
410: (bf) r2 = r10                    ; frame1: R2_w=fp0 R10=fp0 cb
411: (07) r2 += -40                   ; frame1: R2_w=fp-40 cb
412: (18) r1 = 0xffff0000c5ddd800     ; frame1: R1_w=map_ptr(map=G4,ks=4,vs=8) cb
414: (bf) r3 = r6                     ; frame1: R3_w=fp-32 R6=fp-32 cb
415: (b7) r4 = 0                      ; frame1: R4_w=0 cb
416: (85) call bpf_map_update_elem#2          ; frame1: R0_w=scalar() cb
417: (bf) r9 = r0                     ; frame1: R0_w=scalar(id=45) R9_w=scalar(id=45) cb
418: (18) r1 = 0xffff0000c5ddd800     ; frame1: R1_w=map_ptr(map=G4,ks=4,vs=8) cb
420: (bf) r2 = r8                     ; frame1: R2_w=fp-20 R8=fp-20 cb
421: (bf) r3 = r6                     ; frame1: R3_w=fp-32 R6=fp-32 cb
422: (b7) r4 = 0                      ; frame1: R4_w=0 cb
423: (85) call bpf_map_update_elem#2          ; frame1: R0=scalar() cb
424: (4f) r7 |= r9                    ; frame1: R7_w=scalar() R9=scalar(id=45) cb
425: (15) if r7 == 0x0 goto pc+20     ; frame1: R7_w=scalar(umin=1) cb
426: (b7) r1 = 161                    ; frame1: R1_w=161 cb
; __u32 idx = ERR_IDX; @ wm.bpf.c:54
427: (63) *(u32 *)(r10 -4) = r1       ; frame1: R1_w=161 R10=fp0 fp-8=mmmm???? cb
428: (bf) r2 = r10                    ; frame1: R2_w=fp0 R10=fp0 cb
;  @ wm.bpf.c:0
429: (07) r2 += -4                    ; frame1: R2_w=fp-4 cb
; __u64 *p = bpf_map_lookup_elem(&TAPE, &idx); @ wm.bpf.c:55
430: (18) r1 = 0xffff0000ccc96000     ; frame1: R1_w=map_ptr(map=TAPE,ks=4,vs=8) cb
432: (85) call bpf_map_lookup_elem#1          ; frame1: R0=map_value_or_null(id=46,map=TAPE,ks=4,vs=8) cb
433: (b7) r1 = 1                      ; frame1: R1_w=1 cb
; __u64 v = (p ? *p : 0) + 1; @ wm.bpf.c:56
434: (15) if r0 == 0x0 goto pc+2      ; frame1: R0=map_value(map=TAPE,ks=4,vs=8) cb
435: (79) r1 = *(u64 *)(r0 +0)        ; frame1: R0=map_value(map=TAPE,ks=4,vs=8) R1_w=scalar() cb
436: (07) r1 += 1                     ; frame1: R1_w=scalar() cb
437: (7b) *(u64 *)(r10 -16) = r1      ; frame1: R1_w=scalar(id=47) R10=fp0 fp-16_w=scalar(id=47) cb
438: (bf) r2 = r10                    ; frame1: R2_w=fp0 R10=fp0 cb
439: (07) r2 += -4                    ; frame1: R2_w=fp-4 cb
440: (bf) r3 = r10                    ; frame1: R3_w=fp0 R10=fp0 cb
441: (07) r3 += -16                   ; frame1: R3_w=fp-16 cb
; bpf_map_update_elem(&TAPE, &idx, &v, BPF_ANY); @ wm.bpf.c:57
442: (18) r1 = 0xffff0000ccc96000     ; frame1: R1_w=map_ptr(map=TAPE,ks=4,vs=8) cb
444: (b7) r4 = 0                      ; frame1: R4_w=0 cb
445: (85) call bpf_map_update_elem#2          ; frame1: R0=scalar() cb
446: (b7) r1 = 0                      ; frame1: R1_w=0 cb
; __u64 h   = NAND_GATE(G5, xab, g); @ wm.bpf.c:135
447: (63) *(u32 *)(r10 -20) = r1
mark_precise: frame1: last_idx 447 first_idx 446 subseq_idx -1 
mark_precise: frame1: regs=r1 stack= before 446: (b7) r1 = 0
448: frame1: R1_w=0 R10=fp0 fp-24=0000mmmm cb
448: (b7) r1 = 1                      ; frame1: R1_w=1 cb
449: (63) *(u32 *)(r10 -24) = r1      ; frame1: R1_w=1 R10=fp0 fp-24=00001 cb
450: (7b) *(u64 *)(r10 -32) = r1      ; frame1: R1_w=1 R10=fp0 fp-32_w=1 cb
451: (bf) r9 = r10                    ; frame1: R9_w=fp0 R10=fp0 cb
452: (07) r9 += -20                   ; frame1: R9_w=fp-20 cb
453: (18) r1 = 0xffff0000c5ddd000     ; frame1: R1_w=map_ptr(map=G5,ks=4,vs=8) cb
455: (bf) r2 = r9                     ; frame1: R2_w=fp-20 R9_w=fp-20 cb
456: (85) call bpf_map_delete_elem#3          ; frame1: R0_w=scalar() cb
457: (bf) r8 = r10                    ; frame1: R8_w=fp0 R10=fp0 cb
458: (07) r8 += -24                   ; frame1: R8_w=fp-24 cb
459: (18) r1 = 0xffff0000c5ddd000     ; frame1: R1_w=map_ptr(map=G5,ks=4,vs=8) cb
461: (bf) r2 = r8                     ; frame1: R2_w=fp-24 R8_w=fp-24 cb
462: (85) call bpf_map_delete_elem#3          ; frame1: R0=scalar() cb
463: (b7) r1 = 2                      ; frame1: R1_w=2 cb
464: (63) *(u32 *)(r10 -36) = r1      ; frame1: R1_w=2 R10=fp0 fp-40=mmmmmmmm cb
465: (bf) r2 = r10                    ; frame1: R2_w=fp0 R10=fp0 cb
466: (07) r2 += -36                   ; frame1: R2_w=fp-36 cb
467: (18) r1 = 0xffff0000c5ddd000     ; frame1: R1_w=map_ptr(map=G5,ks=4,vs=8) cb
469: (85) call bpf_map_delete_elem#3          ; frame1: R0_w=scalar() cb
470: (bf) r6 = r10                    ; frame1: R6_w=fp0 R10=fp0 cb
471: (07) r6 += -32                   ; frame1: R6_w=fp-32 cb
472: (18) r1 = 0xffff0000c5ddd000     ; frame1: R1_w=map_ptr(map=G5,ks=4,vs=8) cb
474: (bf) r2 = r9                     ; frame1: R2_w=fp-20 R9=fp-20 cb
475: (bf) r3 = r6                     ; frame1: R3_w=fp-32 R6_w=fp-32 cb
476: (b7) r4 = 1                      ; frame1: R4_w=1 cb
477: (85) call bpf_map_update_elem#2          ; frame1: R0=scalar() cb
478: (bf) r7 = r0                     ; frame1: R0=scalar(id=48) R7_w=scalar(id=48) cb
479: (79) r1 = *(u64 *)(r10 -48)      ; frame1: R1_w=0 R10=fp0 fp-48=0 cb
480: (15) if r1 == 0x0 goto pc+1
mark_precise: frame1: last_idx 480 first_idx 478 subseq_idx -1 
mark_precise: frame1: regs=r1 stack= before 479: (79) r1 = *(u64 *)(r10 -48)
mark_precise: frame1: regs= stack=-48 before 478: (bf) r7 = r0
mark_precise: frame1: parent state regs= stack=-48:  frame1: R0_rw=scalar() R6_w=fp-32 R7=scalar(umin=1) R8=fp-24 R9=fp-20 R10=fp0 fp-8=mmmm???? fp-16=scalar(id=47) fp-24=00001 fp-32=1 fp-40=mmmmmmmm fp-48_r=P0 fp-56=scalar(id=1) fp-64=scalar(id=9) fp-72=scalar(id=6,smin=smin32=0,smax=umax=smax32=umax32=1,var_off=(0x0; 0x1)) fp-80=1 cb
mark_precise: frame0: parent state regs= stack=:  R0=scalar() R1=32 R2=func() R3=0 R4=0 R6=fp-8 R10=fp0 fp-8=0 fp-16=mmmm161
mark_precise: frame1: last_idx 477 first_idx 463 subseq_idx 478 
mark_precise: frame1: regs= stack=-48 before 477: (85) call bpf_map_update_elem#2
mark_precise: frame1: regs= stack=-48 before 476: (b7) r4 = 1
mark_precise: frame1: regs= stack=-48 before 475: (bf) r3 = r6
mark_precise: frame1: regs= stack=-48 before 474: (bf) r2 = r9
mark_precise: frame1: regs= stack=-48 before 472: (18) r1 = 0xffff0000c5ddd000
mark_precise: frame1: regs= stack=-48 before 471: (07) r6 += -32
mark_precise: frame1: regs= stack=-48 before 470: (bf) r6 = r10
mark_precise: frame1: regs= stack=-48 before 469: (85) call bpf_map_delete_elem#3
mark_precise: frame1: regs= stack=-48 before 467: (18) r1 = 0xffff0000c5ddd000
mark_precise: frame1: regs= stack=-48 before 466: (07) r2 += -36
mark_precise: frame1: regs= stack=-48 before 465: (bf) r2 = r10
mark_precise: frame1: regs= stack=-48 before 464: (63) *(u32 *)(r10 -36) = r1
mark_precise: frame1: regs= stack=-48 before 463: (b7) r1 = 2
mark_precise: frame1: parent state regs= stack=-48:  frame1: R0_w=scalar() R6=fp-32 R7=scalar(umin=1) R8_w=fp-24 R9_rw=fp-20 R10=fp0 fp-8=mmmm???? fp-16=scalar(id=47) fp-24_r=00001 fp-32_rw=1 fp-40_r=mmmm1 fp-48_r=P0 fp-56=scalar(id=1) fp-64=scalar(id=9) fp-72=scalar(id=6,smin=smin32=0,smax=umax=smax32=umax32=1,var_off=(0x0; 0x1)) fp-80=1 cb
mark_precise: frame0: parent state regs= stack=:  R0=scalar() R1=32 R2=func() R3=0 R4=0 R6=fp-8 R10=fp0 fp-8=0 fp-16=mmmm161
mark_precise: frame1: last_idx 462 first_idx 446 subseq_idx 463 
mark_precise: frame1: regs= stack=-48 before 462: (85) call bpf_map_delete_elem#3
mark_precise: frame1: regs= stack=-48 before 461: (bf) r2 = r8
mark_precise: frame1: regs= stack=-48 before 459: (18) r1 = 0xffff0000c5ddd000
mark_precise: frame1: regs= stack=-48 before 458: (07) r8 += -24
mark_precise: frame1: regs= stack=-48 before 457: (bf) r8 = r10
mark_precise: frame1: regs= stack=-48 before 456: (85) call bpf_map_delete_elem#3
mark_precise: frame1: regs= stack=-48 before 455: (bf) r2 = r9
mark_precise: frame1: regs= stack=-48 before 453: (18) r1 = 0xffff0000c5ddd000
mark_precise: frame1: regs= stack=-48 before 452: (07) r9 += -20
mark_precise: frame1: regs= stack=-48 before 451: (bf) r9 = r10
mark_precise: frame1: regs= stack=-48 before 450: (7b) *(u64 *)(r10 -32) = r1
mark_precise: frame1: regs= stack=-48 before 449: (63) *(u32 *)(r10 -24) = r1
mark_precise: frame1: regs= stack=-48 before 448: (b7) r1 = 1
mark_precise: frame1: regs= stack=-48 before 447: (63) *(u32 *)(r10 -20) = r1
mark_precise: frame1: regs= stack=-48 before 446: (b7) r1 = 0
mark_precise: frame1: parent state regs= stack=-48:  frame1: R0_w=scalar() R6=fp-32 R7=scalar(umin=1) R8=fp-20 R9=scalar(id=45) R10=fp0 fp-8=mmmm???? fp-16_w=scalar(id=47) fp-24_r=00001 fp-32=1 fp-40_r=mmmm1 fp-48_r=P0 fp-56=scalar(id=1) fp-64=scalar(id=9) fp-72=scalar(id=6,smin=smin32=0,smax=umax=smax32=umax32=1,var_off=(0x0; 0x1)) fp-80=1 cb
mark_precise: frame0: parent state regs= stack=:  R0=scalar() R1=32 R2=func() R3=0 R4=0 R6=fp-8 R10=fp0 fp-8=0 fp-16=mmmm161
mark_precise: frame1: last_idx 445 first_idx 433 subseq_idx 446 
mark_precise: frame1: regs= stack=-48 before 445: (85) call bpf_map_update_elem#2
mark_precise: frame1: regs= stack=-48 before 444: (b7) r4 = 0
mark_precise: frame1: regs= stack=-48 before 442: (18) r1 = 0xffff0000ccc96000
mark_precise: frame1: regs= stack=-48 before 441: (07) r3 += -16
mark_precise: frame1: regs= stack=-48 before 440: (bf) r3 = r10
mark_precise: frame1: regs= stack=-48 before 439: (07) r2 += -4
mark_precise: frame1: regs= stack=-48 before 438: (bf) r2 = r10
mark_precise: frame1: regs= stack=-48 before 437: (7b) *(u64 *)(r10 -16) = r1
mark_precise: frame1: regs= stack=-48 before 436: (07) r1 += 1
mark_precise: frame1: regs= stack=-48 before 435: (79) r1 = *(u64 *)(r0 +0)
mark_precise: frame1: regs= stack=-48 before 434: (15) if r0 == 0x0 goto pc+2
mark_precise: frame1: regs= stack=-48 before 433: (b7) r1 = 1
mark_precise: frame1: parent state regs= stack=-48:  frame1: R0_rw=map_value_or_null(id=46,map=TAPE,ks=4,vs=8) R6=fp-32 R7_w=scalar(umin=1) R8=fp-20 R9=scalar(id=45) R10=fp0 fp-8_r=mmmm???? fp-16=scalar(id=24) fp-24_r=00001 fp-32=1 fp-40_r=mmmm1 fp-48_r=P0 fp-56=scalar(id=1) fp-64=scalar(id=9) fp-72=scalar(id=6,smin=smin32=0,smax=umax=smax32=umax32=1,var_off=(0x0; 0x1)) fp-80=1 cb
mark_precise: frame0: parent state regs= stack=:  R0=scalar() R1=32 R2=func() R3=0 R4=0 R6=fp-8 R10=fp0 fp-8=0 fp-16=mmmm161
mark_precise: frame1: last_idx 432 first_idx 424 subseq_idx 433 
mark_precise: frame1: regs= stack=-48 before 432: (85) call bpf_map_lookup_elem#1
mark_precise: frame1: regs= stack=-48 before 430: (18) r1 = 0xffff0000ccc96000
mark_precise: frame1: regs= stack=-48 before 429: (07) r2 += -4
mark_precise: frame1: regs= stack=-48 before 428: (bf) r2 = r10
mark_precise: frame1: regs= stack=-48 before 427: (63) *(u32 *)(r10 -4) = r1
mark_precise: frame1: regs= stack=-48 before 426: (b7) r1 = 161
mark_precise: frame1: regs= stack=-48 before 425: (15) if r7 == 0x0 goto pc+20
mark_precise: frame1: regs= stack=-48 before 424: (4f) r7 |= r9
mark_precise: frame1: parent state regs= stack=-48:  frame1: R0_w=scalar() R6=fp-32 R7_r=scalar(id=25) R8=fp-20 R9_rw=scalar(id=45) R10=fp0 fp-8_r=mmmm???? fp-16=scalar(id=24) fp-24_r=00001 fp-32=1 fp-40_r=mmmm1 fp-48_r=P0 fp-56=scalar(id=1) fp-64=scalar(id=9) fp-72=scalar(id=6,smin=smin32=0,smax=umax=smax32=umax32=1,var_off=(0x0; 0x1)) fp-80=1 cb
mark_precise: frame0: parent state regs= stack=:  R0=scalar() R1=32 R2=func() R3=0 R4=0 R6=fp-8 R10=fp0 fp-8=0 fp-16=mmmm161
mark_precise: frame1: last_idx 423 first_idx 408 subseq_idx 424 
mark_precise: frame1: regs= stack=-48 before 423: (85) call bpf_map_update_elem#2
mark_precise: frame1: regs= stack=-48 before 422: (b7) r4 = 0
mark_precise: frame1: regs= stack=-48 before 421: (bf) r3 = r6
mark_precise: frame1: regs= stack=-48 before 420: (bf) r2 = r8
mark_precise: frame1: regs= stack=-48 before 418: (18) r1 = 0xffff0000c5ddd800
mark_precise: frame1: regs= stack=-48 before 417: (bf) r9 = r0
mark_precise: frame1: regs= stack=-48 before 416: (85) call bpf_map_update_elem#2
mark_precise: frame1: regs= stack=-48 before 415: (b7) r4 = 0
mark_precise: frame1: regs= stack=-48 before 414: (bf) r3 = r6
mark_precise: frame1: regs= stack=-48 before 412: (18) r1 = 0xffff0000c5ddd800
mark_precise: frame1: regs= stack=-48 before 411: (07) r2 += -40
mark_precise: frame1: regs= stack=-48 before 410: (bf) r2 = r10
mark_precise: frame1: regs= stack=-48 before 409: (63) *(u32 *)(r10 -40) = r1
mark_precise: frame1: regs= stack=-48 before 408: (61) r1 = *(u32 *)(r9 +0)
mark_precise: frame1: parent state regs= stack=-48:  frame1: R0=scalar(id=25) R1_w=0 R6_r=fp-32 R7_rw=scalar(id=25) R8_r=fp-20 R9_r=fp-24 R10=fp0 fp-8_r=mmmm???? fp-16=scalar(id=24) fp-24_r=00001 fp-32_r=1 fp-40_r=mmmmmmmm fp-48_r=P0 fp-56=scalar(id=1) fp-64=scalar(id=9) fp-72=scalar(id=6,smin=smin32=0,smax=umax=smax32=umax32=1,var_off=(0x0; 0x1)) fp-80=1 cb
mark_precise: frame0: parent state regs= stack=:  R0=scalar() R1=32 R2=func() R3=0 R4=0 R6=fp-8 R10=fp0 fp-8=0 fp-16=mmmm161
mark_precise: frame1: last_idx 406 first_idx 404 subseq_idx 408 
mark_precise: frame1: regs= stack=-48 before 406: (15) if r1 == 0x0 goto pc+1
mark_precise: frame1: regs=r1 stack=-48 before 405: (79) r1 = *(u64 *)(r10 -48)
mark_precise: frame1: regs= stack=-48 before 404: (bf) r7 = r0
mark_precise: frame1: parent state regs= stack=:  frame1: R0_rw=scalar() R6_rw=fp-32 R7=scalar(umin=1) R8_r=fp-20 R9_r=fp-24 R10=fp0 fp-8_r=mmmm???? fp-16=scalar(id=24) fp-24_r=00001 fp-32_r=1 fp-40_r=mmmmmmmm fp-48_r=Pscalar(id=22) fp-56_r=scalar(id=1) fp-64_r=scalar(id=9) fp-72_r=scalar(id=6,smin=smin32=0,smax=umax=smax32=umax32=1,var_off=(0x0; 0x1)) fp-80=1 cb
mark_precise: frame0: parent state regs= stack=:  R0=scalar() R1=32 R2=func() R3=0 R4=0 R6=fp-8 R10=fp0 fp-8=0 fp-16=mmmm161
480: frame1: R1_w=0 cb
482: (61) r1 = *(u32 *)(r8 +0)        ; frame1: R1_w=1 R8=fp-24 fp-24=00001 cb
483: (63) *(u32 *)(r10 -40) = r1      ; frame1: R1_w=1 R10=fp0 fp-40=mmmm1 cb
484: (bf) r2 = r10                    ; frame1: R2_w=fp0 R10=fp0 cb
485: (07) r2 += -40                   ; frame1: R2_w=fp-40 cb
486: (18) r1 = 0xffff0000c5ddd000     ; frame1: R1_w=map_ptr(map=G5,ks=4,vs=8) cb
488: (bf) r3 = r6                     ; frame1: R3_w=fp-32 R6=fp-32 cb
489: (b7) r4 = 0                      ; frame1: R4_w=0 cb
490: (85) call bpf_map_update_elem#2
491: safe

from 434 to 437: frame1: R0=0 R1=1 R6=fp-32 R7=scalar(umin=1) R8=fp-20 R9=scalar(id=45) R10=fp0 fp-8=mmmm???? fp-16=scalar(id=24) fp-24=00001 fp-32=1 fp-40=mmmm1 fp-48=0 fp-56=scalar(id=1) fp-64=scalar(id=9) fp-72=scalar(id=6,smin=smin32=0,smax=umax=smax32=umax32=1,var_off=(0x0; 0x1)) fp-80=1 cb
437: frame1: R0=0 R1=1 R6=fp-32 R7=scalar(umin=1) R8=fp-20 R9=scalar(id=45) R10=fp0 fp-8=mmmm???? fp-16=scalar(id=24) fp-24=00001 fp-32=1 fp-40=mmmm1 fp-48=0 fp-56=scalar(id=1) fp-64=scalar(id=9) fp-72=scalar(id=6,smin=smin32=0,smax=umax=smax32=umax32=1,var_off=(0x0; 0x1)) fp-80=1 cb
; __u64 v = (p ? *p : 0) + 1; @ wm.bpf.c:56
437: (7b) *(u64 *)(r10 -16) = r1      ; frame1: R1=1 R10=fp0 fp-16_w=1 cb
438: (bf) r2 = r10                    ; frame1: R2_w=fp0 R10=fp0 cb
439: (07) r2 += -4                    ; frame1: R2_w=fp-4 cb
440: (bf) r3 = r10                    ; frame1: R3_w=fp0 R10=fp0 cb
441: (07) r3 += -16                   ; frame1: R3_w=fp-16 cb
; bpf_map_update_elem(&TAPE, &idx, &v, BPF_ANY); @ wm.bpf.c:57
442: (18) r1 = 0xffff0000ccc96000     ; frame1: R1_w=map_ptr(map=TAPE,ks=4,vs=8) cb
444: (b7) r4 = 0                      ; frame1: R4_w=0 cb
445: (85) call bpf_map_update_elem#2
frame 1: propagating fp-48
mark_precise: frame1: last_idx 446 first_idx 437 subseq_idx -1 
mark_precise: frame1: regs= stack=-48 before 445: (85) call bpf_map_update_elem#2
mark_precise: frame1: regs= stack=-48 before 444: (b7) r4 = 0
mark_precise: frame1: regs= stack=-48 before 442: (18) r1 = 0xffff0000ccc96000
mark_precise: frame1: regs= stack=-48 before 441: (07) r3 += -16
mark_precise: frame1: regs= stack=-48 before 440: (bf) r3 = r10
mark_precise: frame1: regs= stack=-48 before 439: (07) r2 += -4
mark_precise: frame1: regs= stack=-48 before 438: (bf) r2 = r10
mark_precise: frame1: regs= stack=-48 before 437: (7b) *(u64 *)(r10 -16) = r1
mark_precise: frame1: parent state regs= stack=-48:  frame1: R0=0 R1_rw=1 R6=fp-32 R7=scalar(umin=1) R8=fp-20 R9=scalar(id=45) R10=fp0 fp-8_r=mmmm???? fp-16=scalar(id=24) fp-24_r=00001 fp-32=1 fp-40_r=mmmm1 fp-48_r=P0 fp-56_r=scalar(id=1) fp-64_r=scalar(id=9) fp-72_r=scalar(id=6,smin=smin32=0,smax=umax=smax32=umax32=1,var_off=(0x0; 0x1)) fp-80=1 cb
mark_precise: frame0: parent state regs= stack=:  R0=scalar() R1=32 R2=func() R3=0 R4=0 R6=fp-8 R10=fp0 fp-8=0 fp-16=mmmm161
mark_precise: frame1: last_idx 434 first_idx 433 subseq_idx 437 
mark_precise: frame1: regs= stack=-48 before 434: (15) if r0 == 0x0 goto pc+2
mark_precise: frame1: regs= stack=-48 before 433: (b7) r1 = 1
mark_precise: frame1: parent state regs= stack=:  frame1: R0_rw=map_value_or_null(id=46,map=TAPE,ks=4,vs=8) R6=fp-32 R7_w=scalar(umin=1) R8=fp-20 R9=scalar(id=45) R10=fp0 fp-8_r=mmmm???? fp-16=scalar(id=24) fp-24_r=00001 fp-32=1 fp-40_r=mmmm1 fp-48_r=P0 fp-56_r=scalar(id=1) fp-64_r=scalar(id=9) fp-72_r=scalar(id=6,smin=smin32=0,smax=umax=smax32=umax32=1,var_off=(0x0; 0x1)) fp-80=1 cb
mark_precise: frame0: parent state regs= stack=:  R0=scalar() R1=32 R2=func() R3=0 R4=0 R6=fp-8 R10=fp0 fp-8=0 fp-16=mmmm161
446: safe
frame 1: propagating fp-48
mark_precise: frame1: last_idx 446 first_idx 424 subseq_idx -1 
mark_precise: frame1: regs= stack=-48 before 425: (15) if r7 == 0x0 goto pc+20
mark_precise: frame1: regs= stack=-48 before 424: (4f) r7 |= r9
mark_precise: frame1: parent state regs= stack=:  frame1: R0_w=scalar() R6=fp-32 R7_r=scalar(id=25) R8=fp-20 R9_rw=scalar(id=45) R10=fp0 fp-8_r=mmmm???? fp-16=scalar(id=24) fp-24_r=00001 fp-32=1 fp-40_r=mmmm1 fp-48_r=P0 fp-56_r=scalar(id=1) fp-64_r=scalar(id=9) fp-72_r=scalar(id=6,smin=smin32=0,smax=umax=smax32=umax32=1,var_off=(0x0; 0x1)) fp-80=1 cb
mark_precise: frame0: parent state regs= stack=:  R0=scalar() R1=32 R2=func() R3=0 R4=0 R6=fp-8 R10=fp0 fp-8=0 fp-16=mmmm161

from 425 to 446: safe

from 360 to 363: frame1: R0=0 R1_w=1 R6=fp-32 R7=scalar(umin=1) R8=fp-20 R9=fp-20 R10=fp0 fp-8=mmmm???? fp-16=scalar(id=20) fp-24=00001 fp-32=1 fp-40=mmmm0 fp-48=scalar(id=22) fp-56=scalar(id=1) fp-64=scalar(id=9) fp-72=scalar(id=6,smin=smin32=0,smax=umax=smax32=umax32=1,var_off=(0x0; 0x1)) fp-80=1 cb
363: frame1: R0=0 R1_w=1 R6=fp-32 R7=scalar(umin=1) R8=fp-20 R9=fp-20 R10=fp0 fp-8=mmmm???? fp-16=scalar(id=20) fp-24=00001 fp-32=1 fp-40=mmmm0 fp-48=scalar(id=22) fp-56=scalar(id=1) fp-64=scalar(id=9) fp-72=scalar(id=6,smin=smin32=0,smax=umax=smax32=umax32=1,var_off=(0x0; 0x1)) fp-80=1 cb
; __u64 v = (p ? *p : 0) + 1; @ wm.bpf.c:56
363: (7b) *(u64 *)(r10 -16) = r1      ; frame1: R1_w=1 R10=fp0 fp-16_w=1 cb
364: (bf) r2 = r10                    ; frame1: R2_w=fp0 R10=fp0 cb
365: (07) r2 += -4                    ; frame1: R2_w=fp-4 cb
366: (bf) r3 = r10                    ; frame1: R3_w=fp0 R10=fp0 cb
367: (07) r3 += -16                   ; frame1: R3_w=fp-16 cb
; bpf_map_update_elem(&TAPE, &idx, &v, BPF_ANY); @ wm.bpf.c:57
368: (18) r1 = 0xffff0000ccc96000     ; frame1: R1_w=map_ptr(map=TAPE,ks=4,vs=8) cb
370: (b7) r4 = 0                      ; frame1: R4_w=0 cb
371: (85) call bpf_map_update_elem#2
frame 1: propagating fp-48
mark_precise: frame1: last_idx 372 first_idx 359 subseq_idx -1 
mark_precise: frame1: regs= stack=-48 before 371: (85) call bpf_map_update_elem#2
mark_precise: frame1: regs= stack=-48 before 370: (b7) r4 = 0
mark_precise: frame1: regs= stack=-48 before 368: (18) r1 = 0xffff0000ccc96000
mark_precise: frame1: regs= stack=-48 before 367: (07) r3 += -16
mark_precise: frame1: regs= stack=-48 before 366: (bf) r3 = r10
mark_precise: frame1: regs= stack=-48 before 365: (07) r2 += -4
mark_precise: frame1: regs= stack=-48 before 364: (bf) r2 = r10
mark_precise: frame1: regs= stack=-48 before 363: (7b) *(u64 *)(r10 -16) = r1
mark_precise: frame1: regs= stack=-48 before 360: (15) if r0 == 0x0 goto pc+2
mark_precise: frame1: regs= stack=-48 before 359: (b7) r1 = 1
mark_precise: frame1: parent state regs= stack=:  frame1: R0_rw=map_value_or_null(id=23,map=TAPE,ks=4,vs=8) R6=fp-32 R7_w=scalar(umin=1) R8=fp-20 R9=fp-20 R10=fp0 fp-8_r=mmmm???? fp-16=scalar(id=20) fp-24_r=00001 fp-32=1 fp-40_r=mmmm0 fp-48_rw=Pscalar(id=22) fp-56_r=scalar(id=1) fp-64_r=scalar(id=9) fp-72_r=scalar(id=6,smin=smin32=0,smax=umax=smax32=umax32=1,var_off=(0x0; 0x1)) fp-80=1 cb
mark_precise: frame0: parent state regs= stack=:  R0=scalar() R1=32 R2=func() R3=0 R4=0 R6=fp-8 R10=fp0 fp-8=0 fp-16=mmmm161
372: safe
frame 1: propagating fp-48
mark_precise: frame1: last_idx 372 first_idx 343 subseq_idx -1 
mark_precise: frame1: regs= stack=-48 before 351: (15) if r7 == 0x0 goto pc+20
mark_precise: frame1: regs= stack=-48 before 350: (7b) *(u64 *)(r10 -48) = r0
mark_precise: frame1: regs=r0 stack= before 349: (85) call bpf_map_update_elem#2

from 351 to 372: safe

from 332 to 334: frame1: R0=scalar(id=21) R1=0 R6=fp-32 R7=scalar(id=21) R8=fp-20 R9=fp-24 R10=fp0 fp-8=mmmm???? fp-16=scalar(id=20) fp-24=00001 fp-32=1 fp-40=mmmmmmmm fp-48=0 fp-56=scalar(id=1) fp-64=scalar(id=9) fp-72=scalar(id=6,smin=smin32=0,smax=umax=smax32=umax32=1,var_off=(0x0; 0x1)) fp-80=1 cb
334: frame1: R0=scalar(id=21) R1=0 R6=fp-32 R7=scalar(id=21) R8=fp-20 R9=fp-24 R10=fp0 fp-8=mmmm???? fp-16=scalar(id=20) fp-24=00001 fp-32=1 fp-40=mmmmmmmm fp-48=0 fp-56=scalar(id=1) fp-64=scalar(id=9) fp-72=scalar(id=6,smin=smin32=0,smax=umax=smax32=umax32=1,var_off=(0x0; 0x1)) fp-80=1 cb
; __u64 xab = NAND_GATE(G3, e, f); @ wm.bpf.c:133
334: (61) r1 = *(u32 *)(r9 +0)        ; frame1: R1_w=1 R9=fp-24 fp-24=00001 cb
335: (63) *(u32 *)(r10 -40) = r1      ; frame1: R1_w=1 R10=fp0 fp-40=mmmm1 cb
336: (bf) r2 = r10                    ; frame1: R2_w=fp0 R10=fp0 cb
337: (07) r2 += -40                   ; frame1: R2_w=fp-40 cb
338: (18) r1 = 0xffff0000c8517c00     ; frame1: R1_w=map_ptr(map=G3,ks=4,vs=8) cb
340: (bf) r3 = r6                     ; frame1: R3_w=fp-32 R6=fp-32 cb
341: (b7) r4 = 0                      ; frame1: R4_w=0 cb
342: (85) call bpf_map_update_elem#2
343: safe

from 286 to 289: frame1: R0=0 R1_w=1 R6=fp-32 R7=scalar(umin=1) R8=scalar(id=18) R9=fp-20 R10=fp0 fp-8=mmmm???? fp-16=scalar(id=16) fp-24=00001 fp-32=1 fp-40=mmmm1 fp-48=scalar(id=14) fp-56=scalar(id=1) fp-64=scalar(id=9) fp-72=scalar(id=6,smin=smin32=0,smax=umax=smax32=umax32=1,var_off=(0x0; 0x1)) fp-80=1 cb
289: frame1: R0=0 R1_w=1 R6=fp-32 R7=scalar(umin=1) R8=scalar(id=18) R9=fp-20 R10=fp0 fp-8=mmmm???? fp-16=scalar(id=16) fp-24=00001 fp-32=1 fp-40=mmmm1 fp-48=scalar(id=14) fp-56=scalar(id=1) fp-64=scalar(id=9) fp-72=scalar(id=6,smin=smin32=0,smax=umax=smax32=umax32=1,var_off=(0x0; 0x1)) fp-80=1 cb
; __u64 v = (p ? *p : 0) + 1; @ wm.bpf.c:56
289: (7b) *(u64 *)(r10 -16) = r1      ; frame1: R1_w=1 R10=fp0 fp-16_w=1 cb
290: (bf) r2 = r10                    ; frame1: R2_w=fp0 R10=fp0 cb
291: (07) r2 += -4                    ; frame1: R2_w=fp-4 cb
292: (bf) r3 = r10                    ; frame1: R3_w=fp0 R10=fp0 cb
293: (07) r3 += -16                   ; frame1: R3_w=fp-16 cb
; bpf_map_update_elem(&TAPE, &idx, &v, BPF_ANY); @ wm.bpf.c:57
294: (18) r1 = 0xffff0000ccc96000     ; frame1: R1_w=map_ptr(map=TAPE,ks=4,vs=8) cb
296: (b7) r4 = 0                      ; frame1: R4_w=0 cb
297: (85) call bpf_map_update_elem#2
298: safe

from 277 to 298: safe

from 258 to 260: frame1: R0=scalar(id=17) R1=fp-20 R2=0 R6=fp-32 R7=scalar(id=17) R8=fp-24 R9=fp-20 R10=fp0 fp-8=mmmm???? fp-16=scalar(id=16) fp-24=00001 fp-32=1 fp-40=mmmmmmmm fp-48=scalar(id=14) fp-56=scalar(id=1) fp-64=scalar(id=9) fp-72=scalar(id=6,smin=smin32=0,smax=umax=smax32=umax32=1,var_off=(0x0; 0x1)) fp-80=0 cb
260: frame1: R0=scalar(id=17) R1=fp-20 R2=0 R6=fp-32 R7=scalar(id=17) R8=fp-24 R9=fp-20 R10=fp0 fp-8=mmmm???? fp-16=scalar(id=16) fp-24=00001 fp-32=1 fp-40=mmmmmmmm fp-48=scalar(id=14) fp-56=scalar(id=1) fp-64=scalar(id=9) fp-72=scalar(id=6,smin=smin32=0,smax=umax=smax32=umax32=1,var_off=(0x0; 0x1)) fp-80=0 cb
; __u64 f   = NAND_GATE(G2, b, d); @ wm.bpf.c:132
260: (61) r1 = *(u32 *)(r1 +0)        ; frame1: R1_w=0 fp-24=00001 cb
261: (63) *(u32 *)(r10 -40) = r1      ; frame1: R1_w=0 R10=fp0 fp-40=mmmm0 cb
262: (bf) r2 = r10                    ; frame1: R2_w=fp0 R10=fp0 cb
263: (07) r2 += -40                   ; frame1: R2_w=fp-40 cb
264: (18) r1 = 0xffff0000c8516c00     ; frame1: R1_w=map_ptr(map=G2,ks=4,vs=8) cb
266: (bf) r3 = r6                     ; frame1: R3_w=fp-32 R6=fp-32 cb
267: (b7) r4 = 0                      ; frame1: R4_w=0 cb
268: (85) call bpf_map_update_elem#2
269: safe

from 212 to 215: frame1: R0=0 R1_w=1 R6=fp-32 R7=0 R8=fp-20 R9=scalar(umin=1) R10=fp0 fp-8=mmmm???? fp-16=scalar(id=11) fp-24=00001 fp-32=1 fp-40=mmmmscalar(id=13,smin=smin32=0,smax=umax=smax32=umax32=1,var_off=(0x0; 0x1)) fp-48=scalar(id=14) fp-56=scalar(id=1) fp-64=scalar(id=9) fp-72=scalar(id=6,smin=smin32=0,smax=umax=smax32=umax32=1,var_off=(0x0; 0x1)) fp-80=scalar(id=5,smin=smin32=0,smax=umax=smax32=umax32=1,var_off=(0x0; 0x1)) cb
215: frame1: R0=0 R1_w=1 R6=fp-32 R7=0 R8=fp-20 R9=scalar(umin=1) R10=fp0 fp-8=mmmm???? fp-16=scalar(id=11) fp-24=00001 fp-32=1 fp-40=mmmmscalar(id=13,smin=smin32=0,smax=umax=smax32=umax32=1,var_off=(0x0; 0x1)) fp-48=scalar(id=14) fp-56=scalar(id=1) fp-64=scalar(id=9) fp-72=scalar(id=6,smin=smin32=0,smax=umax=smax32=umax32=1,var_off=(0x0; 0x1)) fp-80=scalar(id=5,smin=smin32=0,smax=umax=smax32=umax32=1,var_off=(0x0; 0x1)) cb
; __u64 v = (p ? *p : 0) + 1; @ wm.bpf.c:56
215: (7b) *(u64 *)(r10 -16) = r1      ; frame1: R1_w=1 R10=fp0 fp-16_w=1 cb
216: (bf) r2 = r10                    ; frame1: R2_w=fp0 R10=fp0 cb
217: (07) r2 += -4                    ; frame1: R2_w=fp-4 cb
218: (bf) r3 = r10                    ; frame1: R3_w=fp0 R10=fp0 cb
219: (07) r3 += -16                   ; frame1: R3_w=fp-16 cb
; bpf_map_update_elem(&TAPE, &idx, &v, BPF_ANY); @ wm.bpf.c:57
220: (18) r1 = 0xffff0000ccc96000     ; frame1: R1_w=map_ptr(map=TAPE,ks=4,vs=8) cb
222: (b7) r4 = 0                      ; frame1: R4_w=0 cb
223: (85) call bpf_map_update_elem#2
frame 1: propagating r7
mark_precise: frame1: last_idx 224 first_idx 211 subseq_idx -1 
mark_precise: frame1: regs=r7 stack= before 223: (85) call bpf_map_update_elem#2
mark_precise: frame1: regs=r7 stack= before 222: (b7) r4 = 0
mark_precise: frame1: regs=r7 stack= before 220: (18) r1 = 0xffff0000ccc96000
mark_precise: frame1: regs=r7 stack= before 219: (07) r3 += -16
mark_precise: frame1: regs=r7 stack= before 218: (bf) r3 = r10
mark_precise: frame1: regs=r7 stack= before 217: (07) r2 += -4
mark_precise: frame1: regs=r7 stack= before 216: (bf) r2 = r10
mark_precise: frame1: regs=r7 stack= before 215: (7b) *(u64 *)(r10 -16) = r1
mark_precise: frame1: regs=r7 stack= before 212: (15) if r0 == 0x0 goto pc+2
mark_precise: frame1: regs=r7 stack= before 211: (b7) r1 = 1
mark_precise: frame1: parent state regs= stack=:  frame1: R0_rw=map_value_or_null(id=15,map=TAPE,ks=4,vs=8) R6=fp-32 R7_r=P0 R8=fp-20 R9=scalar(umin=1) R10=fp0 fp-8_r=mmmm???? fp-16=scalar(id=11) fp-24_r=00001 fp-32=1 fp-40_r=mmmmscalar(id=13,smin=smin32=0,smax=umax=smax32=umax32=1,var_off=(0x0; 0x1)) fp-48_rw=scalar(id=14) fp-56_r=scalar(id=1) fp-64_r=scalar(id=9) fp-72_r=scalar(id=6,smin=smin32=0,smax=umax=smax32=umax32=1,var_off=(0x0; 0x1)) fp-80_r=scalar(id=5,smin=smin32=0,smax=umax=smax32=umax32=1,var_off=(0x0; 0x1)) cb
mark_precise: frame0: parent state regs= stack=:  R0=scalar() R1=32 R2=func() R3=0 R4=0 R6=fp-8 R10=fp0 fp-8=0 fp-16=mmmm161
224: safe
frame 1: propagating r7
mark_precise: frame1: last_idx 224 first_idx 202 subseq_idx -1 
mark_precise: frame1: regs=r7 stack= before 203: (15) if r9 == 0x0 goto pc+20
mark_precise: frame1: regs=r7 stack= before 202: (7b) *(u64 *)(r10 -48) = r0
mark_precise: frame1: parent state regs= stack=:  frame1: R0_rw=scalar() R6=fp-32 R7_r=P0 R8=fp-20 R9_rw=scalar() R10=fp0 fp-8_r=mmmm???? fp-16=scalar(id=11) fp-24_r=00001 fp-32=1 fp-40_r=mmmmscalar(id=13,smin=smin32=0,smax=umax=smax32=umax32=1,var_off=(0x0; 0x1)) fp-48=scalar(id=3,smin=smin32=0,smax=umax=smax32=umax32=1,var_off=(0x0; 0x1)) fp-56_r=scalar(id=1) fp-64_r=scalar(id=9) fp-72_r=scalar(id=6,smin=smin32=0,smax=umax=smax32=umax32=1,var_off=(0x0; 0x1)) fp-80_r=scalar(id=5,smin=smin32=0,smax=umax=smax32=umax32=1,var_off=(0x0; 0x1)) cb
mark_precise: frame0: parent state regs= stack=:  R0=scalar() R1=32 R2=func() R3=0 R4=0 R6=fp-8 R10=fp0 fp-8=0 fp-16=mmmm161

from 203 to 224: safe

from 138 to 141: frame1: R0=0 R1=1 R6=fp-32 R7=fp-20 R8=scalar(umin=1) R9=1 R10=fp0 fp-8=mmmm???? fp-16=????160 fp-24=00001 fp-32=1 fp-40=mmmmscalar(id=8,smin=smin32=0,smax=umax=smax32=umax32=1,var_off=(0x0; 0x1)) fp-48=scalar(id=3,smin=smin32=0,smax=umax=smax32=umax32=1,var_off=(0x0; 0x1)) fp-56=scalar(id=1) fp-64=scalar(id=9) fp-72=scalar(id=6,smin=smin32=0,smax=umax=smax32=umax32=1,var_off=(0x0; 0x1)) fp-80=scalar(id=5,smin=smin32=0,smax=umax=smax32=umax32=1,var_off=(0x0; 0x1)) cb
141: frame1: R0=0 R1=1 R6=fp-32 R7=fp-20 R8=scalar(umin=1) R9=1 R10=fp0 fp-8=mmmm???? fp-16=????160 fp-24=00001 fp-32=1 fp-40=mmmmscalar(id=8,smin=smin32=0,smax=umax=smax32=umax32=1,var_off=(0x0; 0x1)) fp-48=scalar(id=3,smin=smin32=0,smax=umax=smax32=umax32=1,var_off=(0x0; 0x1)) fp-56=scalar(id=1) fp-64=scalar(id=9) fp-72=scalar(id=6,smin=smin32=0,smax=umax=smax32=umax32=1,var_off=(0x0; 0x1)) fp-80=scalar(id=5,smin=smin32=0,smax=umax=smax32=umax32=1,var_off=(0x0; 0x1)) cb
; __u64 v = (p ? *p : 0) + 1; @ wm.bpf.c:56
141: (7b) *(u64 *)(r10 -16) = r1      ; frame1: R1=1 R10=fp0 fp-16_w=1 cb
142: (bf) r2 = r10                    ; frame1: R2_w=fp0 R10=fp0 cb
143: (07) r2 += -4                    ; frame1: R2_w=fp-4 cb
144: (bf) r3 = r10                    ; frame1: R3_w=fp0 R10=fp0 cb
145: (07) r3 += -16                   ; frame1: R3_w=fp-16 cb
; bpf_map_update_elem(&TAPE, &idx, &v, BPF_ANY); @ wm.bpf.c:57
146: (18) r1 = 0xffff0000ccc96000     ; frame1: R1_w=map_ptr(map=TAPE,ks=4,vs=8) cb
148: (b7) r4 = 0                      ; frame1: R4_w=0 cb
149: (85) call bpf_map_update_elem#2
150: safe

from 129 to 150: safe

from 58 to 61: frame1: R0=0 R6=0 R7=scalar(id=1) R10=fp0 fp-16=????scalar(smin=0x8000000000000040,umin=umin32=64,smin32=0x80000040,var_off=(0x40; 0xffffffffffffffbf)) fp-48=scalar(id=3,smin=smin32=0,smax=umax=smax32=umax32=1,var_off=(0x0; 0x1)) cb
61: frame1: R0=0 R6=0 R7=scalar(id=1) R10=fp0 fp-16=????scalar(smin=0x8000000000000040,umin=umin32=64,smin32=0x80000040,var_off=(0x40; 0xffffffffffffffbf)) fp-48=scalar(id=3,smin=smin32=0,smax=umax=smax32=umax32=1,var_off=(0x0; 0x1)) cb
; return p ? (*p & 1ull) : 0; @ wm.bpf.c:43
61: (7b) *(u64 *)(r10 -80) = r6       ; frame1: R6=0 R10=fp0 fp-80_w=0 cb
62: (7b) *(u64 *)(r10 -56) = r7       ; frame1: R7=scalar(id=1) R10=fp0 fp-56_w=scalar(id=1) cb
63: (b7) r1 = 160                     ; frame1: R1_w=160 cb
64: (63) *(u32 *)(r10 -16) = r1       ; frame1: R1_w=160 R10=fp0 fp-16=????160 cb
65: (bf) r2 = r10                     ; frame1: R2_w=fp0 R10=fp0 cb
;  @ wm.bpf.c:0
66: (07) r2 += -16                    ; frame1: R2_w=fp-16 cb
; __u64 *p = bpf_map_lookup_elem(&TAPE, &idx); @ wm.bpf.c:42
67: (18) r1 = 0xffff0000ccc96000      ; frame1: R1_w=map_ptr(map=TAPE,ks=4,vs=8) cb
69: (85) call bpf_map_lookup_elem#1
mark_precise: frame1: last_idx 69 first_idx 58 subseq_idx -1 
mark_precise: frame1: regs= stack=-16 before 67: (18) r1 = 0xffff0000ccc96000
mark_precise: frame1: regs= stack=-16 before 66: (07) r2 += -16
mark_precise: frame1: regs= stack=-16 before 65: (bf) r2 = r10
mark_precise: frame1: regs= stack=-16 before 64: (63) *(u32 *)(r10 -16) = r1
mark_precise: frame1: regs=r1 stack= before 63: (b7) r1 = 160
70: safe

from 46 to 50: frame1: R0=0 R1=0 R6=0 R7=scalar(id=1) R10=fp0 fp-16=????scalar() fp-48=0 cb
50: frame1: R0=0 R1=0 R6=0 R7=scalar(id=1) R10=fp0 fp-16=????scalar() fp-48=0 cb
; __u64 yi = tape_read(Y_BASE + i); @ wm.bpf.c:164
50: (bf) r1 = r7                      ; frame1: R1_w=scalar(id=1) R7=scalar(id=1) cb
51: (47) r1 |= 64                     ; frame1: R1_w=scalar(smin=0x8000000000000040,umin=umin32=64,smin32=0x80000040,var_off=(0x40; 0xffffffffffffffbf)) cb
52: (63) *(u32 *)(r10 -16) = r1       ; frame1: R1_w=scalar(smin=0x8000000000000040,umin=umin32=64,smin32=0x80000040,var_off=(0x40; 0xffffffffffffffbf)) R10=fp0 fp-16=????scalar(smin=0x8000000000000040,umin=umin32=64,smin32=0x80000040,var_off=(0x40; 0xffffffffffffffbf)) cb
53: (bf) r2 = r10                     ; frame1: R2_w=fp0 R10=fp0 cb
;  @ wm.bpf.c:0
54: (07) r2 += -16                    ; frame1: R2_w=fp-16 cb
; __u64 *p = bpf_map_lookup_elem(&TAPE, &idx); @ wm.bpf.c:42
55: (18) r1 = 0xffff0000ccc96000      ; frame1: R1_w=map_ptr(map=TAPE,ks=4,vs=8) cb
57: (85) call bpf_map_lookup_elem#1
58: safe

from 34 to 774: frame1: R1_w=scalar(smin=umin=umin32=32,smax=umax=0xffffffff,var_off=(0x0; 0xffffffff)) R2=0 R6_w=1 R7_w=scalar(id=1) R10=fp0 cb
774: frame1: R1_w=scalar(smin=umin=umin32=32,smax=umax=0xffffffff,var_off=(0x0; 0xffffffff)) R2=0 R6_w=1 R7_w=scalar(id=1) R10=fp0 cb
; } @ wm.bpf.c:173
774: (bf) r0 = r6                     ; frame1: R0_w=1 R6_w=1 cb
775: (95) exit
mark_precise: frame1: last_idx 775 first_idx 27 subseq_idx -1 
mark_precise: frame1: regs=r0 stack= before 774: (bf) r0 = r6
mark_precise: frame1: regs=r6 stack= before 34: (25) if r1 > 0x1f goto pc+739
mark_precise: frame1: regs=r6 stack= before 33: (77) r1 >>= 32
mark_precise: frame1: regs=r6 stack= before 32: (67) r1 <<= 32
mark_precise: frame1: regs=r6 stack= before 31: (b7) r6 = 1
returning from callee:
 frame1: R0_w=1 R1_w=scalar(smin=umin=umin32=32,smax=umax=0xffffffff,var_off=(0x0; 0xffffffff)) R2=0 R6_w=1 R7_w=scalar(id=1) R10=fp0 cb
to caller at 27:
 R0=scalar() R1=32 R2=func() R3=0 R4=0 R6=fp-8 R10=fp0 fp-8=0 fp-16=mmmm161
frame 0: propagating r1,r4
mark_precise: frame0: last_idx 27 first_idx 27 subseq_idx -1 
mark_precise: frame0: regs=r1,r4 stack= before 775: (95) exit

from 775 to 27: safe
verification time 1715 usec
stack depth 40+80
processed 938 insns (limit 1000000) max_states_per_insn 1 total_states 67 peak_states 67 mark_read 47
-- END PROG LOAD LOG --
libbpf: prog 'wm_nand': pinned at '/sys/fs/bpf/wm_ablation_k2_sentinel_190216/wm_nand'
libbpf: prog 'wm_fa': pinned at '/sys/fs/bpf/wm_ablation_k2_sentinel_190216/wm_fa'
libbpf: prog 'wm_adder32': pinned at '/sys/fs/bpf/wm_ablation_k2_sentinel_190216/wm_adder32'
== xlated wm_nand ==
int wm_nand(void * ctx):
; int wm_nand(void *ctx)
   0: (b7) r6 = 0
   1: (63) *(u32 *)(r10 -8) = r6
   2: (bf) r2 = r10
; 
   3: (07) r2 += -8
; __u64 *p = bpf_map_lookup_elem(&TAPE, &idx);
   4: (18) r1 = map[id:516]
   6: (07) r1 += 264
   7: (61) r0 = *(u32 *)(r2 +0)
   8: (35) if r0 >= 0x100 goto pc+3
   9: (67) r0 <<= 3
  10: (0f) r0 += r1
  11: (05) goto pc+1
  12: (b7) r0 = 0
  13: (b7) r9 = 0
; return p ? (*p & 1ull) : 0;
  14: (15) if r0 == 0x0 goto pc+2
; return p ? (*p & 1ull) : 0;
  15: (79) r9 = *(u64 *)(r0 +0)
; __u64 out = NAND_GATE(G0, a, b);
  16: (57) r9 &= 1
  17: (b7) r7 = 1
  18: (63) *(u32 *)(r10 -8) = r7
  19: (bf) r2 = r10
; 
  20: (07) r2 += -8
; __u64 *p = bpf_map_lookup_elem(&TAPE, &idx);
  21: (18) r1 = map[id:516]
  23: (07) r1 += 264
  24: (61) r0 = *(u32 *)(r2 +0)
  25: (35) if r0 >= 0x100 goto pc+3
  26: (67) r0 <<= 3
  27: (0f) r0 += r1
  28: (05) goto pc+1
  29: (b7) r0 = 0
; __u64 out = NAND_GATE(G0, a, b);
  30: (63) *(u32 *)(r10 -16) = r6
  31: (63) *(u32 *)(r10 -20) = r7
  32: (7b) *(u64 *)(r10 -32) = r7
  33: (bf) r6 = r10
; 
  34: (07) r6 += -16
; __u64 out = NAND_GATE(G0, a, b);
  35: (18) r1 = map[id:515]
  37: (bf) r2 = r6
  38: (85) call htab_map_delete_elem#404256
  39: (bf) r2 = r10
; 
  40: (07) r2 += -20
; __u64 out = NAND_GATE(G0, a, b);
  41: (18) r1 = map[id:515]
  43: (85) call htab_map_delete_elem#404256
  44: (b7) r1 = 2
  45: (63) *(u32 *)(r10 -36) = r1
  46: (bf) r2 = r10
; 
  47: (07) r2 += -36
; __u64 out = NAND_GATE(G0, a, b);
  48: (18) r1 = map[id:515]
  50: (85) call htab_map_delete_elem#404256
  51: (bf) r7 = r10
; 
  52: (07) r7 += -32
; __u64 out = NAND_GATE(G0, a, b);
  53: (18) r1 = map[id:515]
  55: (bf) r2 = r6
  56: (bf) r3 = r7
  57: (b7) r4 = 1
  58: (85) call htab_map_update_elem#409384
  59: (bf) r8 = r0
  60: (61) r1 = *(u32 *)(r10 -16)
  61: (61) r2 = *(u32 *)(r10 -20)
  62: (1f) r2 -= r1
  63: (2f) r2 *= r9
  64: (0f) r2 += r1
  65: (63) *(u32 *)(r10 -40) = r2
  66: (bf) r2 = r10
; 
  67: (07) r2 += -40
; __u64 out = NAND_GATE(G0, a, b);
  68: (18) r1 = map[id:515]
  70: (bf) r3 = r7
  71: (b7) r4 = 0
  72: (85) call htab_map_update_elem#409384
; __u64 out = NAND_GATE(G0, a, b);
  73: (4f) r8 |= r0
; __u64 out = NAND_GATE(G0, a, b);
  74: (18) r1 = map[id:515]
  76: (bf) r2 = r6
  77: (bf) r3 = r7
  78: (b7) r4 = 0
  79: (85) call htab_map_update_elem#409384
  80: (bf) r6 = r0
; __u64 out = NAND_GATE(G0, a, b);
  81: (15) if r8 == 0x0 goto pc+26
  82: (b7) r1 = 161
; __u32 idx = ERR_IDX;
  83: (63) *(u32 *)(r10 -12) = r1
  84: (bf) r2 = r10
; 
  85: (07) r2 += -12
; __u64 *p = bpf_map_lookup_elem(&TAPE, &idx);
  86: (18) r1 = map[id:516]
  88: (07) r1 += 264
  89: (61) r0 = *(u32 *)(r2 +0)
  90: (35) if r0 >= 0x100 goto pc+3
  91: (67) r0 <<= 3
  92: (0f) r0 += r1
  93: (05) goto pc+1
  94: (b7) r0 = 0
  95: (b7) r1 = 1
; __u64 v = (p ? *p : 0) + 1;
  96: (15) if r0 == 0x0 goto pc+2
; __u64 v = (p ? *p : 0) + 1;
  97: (79) r1 = *(u64 *)(r0 +0)
; __u64 v = (p ? *p : 0) + 1;
  98: (07) r1 += 1
; __u64 v = (p ? *p : 0) + 1;
  99: (7b) *(u64 *)(r10 -8) = r1
 100: (bf) r2 = r10
 101: (07) r2 += -12
 102: (bf) r3 = r10
 103: (07) r3 += -8
; bpf_map_update_elem(&TAPE, &idx, &v, BPF_ANY);
 104: (18) r1 = map[id:516]
 106: (b7) r4 = 0
 107: (85) call array_map_update_elem#428432
 108: (b7) r1 = 2
 109: (63) *(u32 *)(r10 -32) = r1
 110: (b7) r1 = 1
; __u64 out = NAND_GATE(G0, a, b);
 111: (15) if r6 == 0x0 goto pc+1
 112: (b7) r1 = 0
; v &= 1ull;
 113: (7b) *(u64 *)(r10 -8) = r1
 114: (bf) r2 = r10
; 
 115: (07) r2 += -32
 116: (bf) r3 = r10
 117: (07) r3 += -8
; bpf_map_update_elem(&TAPE, &idx, &v, BPF_ANY);
 118: (18) r1 = map[id:516]
 120: (b7) r4 = 0
 121: (85) call array_map_update_elem#428432
; return 0;
 122: (b7) r0 = 0
 123: (95) exit
